LX51 LINKER/LOCATER V4.66.97.0                                                          08/09/2020  22:39:19  PAGE 1


LX51 LINKER/LOCATER V4.66.97.0, INVOKED BY:
C:\SILICONLABS\SIMPLICITYSTUDIO\V4\DEVELOPER\TOOLCHAINS\KEIL_8051\9.60\BIN\LX51.EXE ./src/EFM8BB10F4G-A-QFN20_main.OBJ, 
>> ./src/InitDevice.OBJ, ./src/Interrupts.OBJ, ./src/SILABS_STARTUP.OBJ, ./src/ws2812.OBJ TO EFM8BB10F4G-A-QFN20.OMF.CRB
>> UILD REMOVEUNUSED PRINT (.\EFM8BB10F4G-A-QFN20.m51) PAGEWIDTH (120) PAGELENGTH (65) CLASSES (ECODE (C:0X0-C:0X1FFE), 
>> HCONST (C:0X0-C:0X1FFE), XDATA (X:0X0-X:0XFF), HDATA (X:0X0-X:0XFF))


CPU MODE:     8051 MODE
MEMORY MODEL: SMALL WITH FLOATING POINT ARITHMETIC


INPUT MODULES INCLUDED:
  ./src/EFM8BB10F4G-A-QFN20_main.OBJ (EFM8BB10F4G_A_QFN20_MAIN)
         COMMENT TYPE 0: C51 V9.60.0.0
  ./src/InitDevice.OBJ (INITDEVICE)
         COMMENT TYPE 0: C51 V9.60.0.0
  ./src/Interrupts.OBJ (INTERRUPTS)
         COMMENT TYPE 0: C51 V9.60.0.0
  ./src/SILABS_STARTUP.OBJ (?C_STARTUP)
         COMMENT TYPE 0: AX51 V3.15.3.0
  ./src/ws2812.OBJ (WS2812)
         COMMENT TYPE 0: C51 V9.60.0.0
  C:\SILICONLABS\SIMPLICITYSTUDIO\V4\DEVELOPER\TOOLCHAINS\KEIL_8051\9.60\LIB\C51FPS.LIB (?C?FPADD)
         COMMENT TYPE 1: A51 / ASM51 Assembler
  C:\SILICONLABS\SIMPLICITYSTUDIO\V4\DEVELOPER\TOOLCHAINS\KEIL_8051\9.60\LIB\C51FPS.LIB (?C?FPMUL)
         COMMENT TYPE 1: A51 / ASM51 Assembler
  C:\SILICONLABS\SIMPLICITYSTUDIO\V4\DEVELOPER\TOOLCHAINS\KEIL_8051\9.60\LIB\C51FPS.LIB (?C?FPDIV)
         COMMENT TYPE 1: A51 / ASM51 Assembler
  C:\SILICONLABS\SIMPLICITYSTUDIO\V4\DEVELOPER\TOOLCHAINS\KEIL_8051\9.60\LIB\C51FPS.LIB (?C?FCAST)
         COMMENT TYPE 1: A51 / ASM51 Assembler
  C:\SILICONLABS\SIMPLICITYSTUDIO\V4\DEVELOPER\TOOLCHAINS\KEIL_8051\9.60\LIB\C51FPS.LIB (?C?CASTF)
         COMMENT TYPE 1: A51 / ASM51 Assembler
  C:\SILICONLABS\SIMPLICITYSTUDIO\V4\DEVELOPER\TOOLCHAINS\KEIL_8051\9.60\LIB\C51FPS.LIB (PRINTF)
         COMMENT TYPE 1: A51 / ASM51 Assembler
  C:\SILICONLABS\SIMPLICITYSTUDIO\V4\DEVELOPER\TOOLCHAINS\KEIL_8051\9.60\LIB\C51FPS.LIB (POW)
         COMMENT TYPE 1: C51 Compiler
  C:\SILICONLABS\SIMPLICITYSTUDIO\V4\DEVELOPER\TOOLCHAINS\KEIL_8051\9.60\LIB\C51FPS.LIB (?C?FPGETOPN)
         COMMENT TYPE 1: A51 / ASM51 Assembler
  C:\SILICONLABS\SIMPLICITYSTUDIO\V4\DEVELOPER\TOOLCHAINS\KEIL_8051\9.60\LIB\C51FPS.LIB (?C?CHKFLOAT)
         COMMENT TYPE 1: A51 / ASM51 Assembler
  C:\SILICONLABS\SIMPLICITYSTUDIO\V4\DEVELOPER\TOOLCHAINS\KEIL_8051\9.60\LIB\C51FPS.LIB (?C?FPCMP)
         COMMENT TYPE 1: A51 / ASM51 Assembler
  C:\SILICONLABS\SIMPLICITYSTUDIO\V4\DEVELOPER\TOOLCHAINS\KEIL_8051\9.60\LIB\C51FPS.LIB (?C?FPNEG)
         COMMENT TYPE 1: A51 / ASM51 Assembler
  C:\SILICONLABS\SIMPLICITYSTUDIO\V4\DEVELOPER\TOOLCHAINS\KEIL_8051\9.60\LIB\C51FPS.LIB (?C?FPROUND)
         COMMENT TYPE 1: A51 / ASM51 Assembler
  C:\SILICONLABS\SIMPLICITYSTUDIO\V4\DEVELOPER\TOOLCHAINS\KEIL_8051\9.60\LIB\C51FPS.LIB (?C?FPCONVERT)
         COMMENT TYPE 1: A51 / ASM51 Assembler
  C:\SILICONLABS\SIMPLICITYSTUDIO\V4\DEVELOPER\TOOLCHAINS\KEIL_8051\9.60\LIB\C51FPS.LIB (EXP)
         COMMENT TYPE 1: A51 / ASM51 Assembler
  C:\SILICONLABS\SIMPLICITYSTUDIO\V4\DEVELOPER\TOOLCHAINS\KEIL_8051\9.60\LIB\C51FPS.LIB (LOG)
         COMMENT TYPE 1: A51 / ASM51 Assembler
  C:\SILICONLABS\SIMPLICITYSTUDIO\V4\DEVELOPER\TOOLCHAINS\KEIL_8051\9.60\LIB\C51FPS.LIB (?C?FTNPWR)
         COMMENT TYPE 1: A51 / ASM51 Assembler
  C:\SILICONLABS\SIMPLICITYSTUDIO\V4\DEVELOPER\TOOLCHAINS\KEIL_8051\9.60\LIB\C51FPS.LIB (?C?FPSERIES)
         COMMENT TYPE 1: A51 / ASM51 Assembler
  C:\SILICONLABS\SIMPLICITYSTUDIO\V4\DEVELOPER\TOOLCHAINS\KEIL_8051\9.60\LIB\C51S.LIB (?C_INIT)
         COMMENT TYPE 1: A51 / ASM51 Assembler
  C:\SILICONLABS\SIMPLICITYSTUDIO\V4\DEVELOPER\TOOLCHAINS\KEIL_8051\9.60\LIB\C51S.LIB (?C?COPY)
         COMMENT TYPE 1: A51 / ASM51 Assembler
  C:\SILICONLABS\SIMPLICITYSTUDIO\V4\DEVELOPER\TOOLCHAINS\KEIL_8051\9.60\LIB\C51S.LIB (?C?CLDPTR)
         COMMENT TYPE 1: A51 / ASM51 Assembler
  C:\SILICONLABS\SIMPLICITYSTUDIO\V4\DEVELOPER\TOOLCHAINS\KEIL_8051\9.60\LIB\C51S.LIB (?C?CLDOPTR)
LX51 LINKER/LOCATER V4.66.97.0                                                        08/09/2020  22:39:19  PAGE 2


         COMMENT TYPE 1: A51 / ASM51 Assembler
  C:\SILICONLABS\SIMPLICITYSTUDIO\V4\DEVELOPER\TOOLCHAINS\KEIL_8051\9.60\LIB\C51S.LIB (?C?CSTPTR)
         COMMENT TYPE 1: A51 / ASM51 Assembler
  C:\SILICONLABS\SIMPLICITYSTUDIO\V4\DEVELOPER\TOOLCHAINS\KEIL_8051\9.60\LIB\C51S.LIB (?C?IILDX)
         COMMENT TYPE 1: A51 / ASM51 Assembler
  C:\SILICONLABS\SIMPLICITYSTUDIO\V4\DEVELOPER\TOOLCHAINS\KEIL_8051\9.60\LIB\C51S.LIB (?C?ULDIV)
         COMMENT TYPE 1: A51 / ASM51 Assembler
  C:\SILICONLABS\SIMPLICITYSTUDIO\V4\DEVELOPER\TOOLCHAINS\KEIL_8051\9.60\LIB\C51S.LIB (?C?SLDIV)
         COMMENT TYPE 1: A51 / ASM51 Assembler
  C:\SILICONLABS\SIMPLICITYSTUDIO\V4\DEVELOPER\TOOLCHAINS\KEIL_8051\9.60\LIB\C51S.LIB (?C?LNEG)
         COMMENT TYPE 1: A51 / ASM51 Assembler
  C:\SILICONLABS\SIMPLICITYSTUDIO\V4\DEVELOPER\TOOLCHAINS\KEIL_8051\9.60\LIB\C51S.LIB (?C?ULCMP)
         COMMENT TYPE 1: A51 / ASM51 Assembler
  C:\SILICONLABS\SIMPLICITYSTUDIO\V4\DEVELOPER\TOOLCHAINS\KEIL_8051\9.60\LIB\C51S.LIB (?C?LLDPTR)
         COMMENT TYPE 1: A51 / ASM51 Assembler
  C:\SILICONLABS\SIMPLICITYSTUDIO\V4\DEVELOPER\TOOLCHAINS\KEIL_8051\9.60\LIB\C51S.LIB (?C?LLDCODE)
         COMMENT TYPE 1: A51 / ASM51 Assembler
  C:\SILICONLABS\SIMPLICITYSTUDIO\V4\DEVELOPER\TOOLCHAINS\KEIL_8051\9.60\LIB\C51S.LIB (?C?LLDCODE0)
         COMMENT TYPE 1: A51 / ASM51 Assembler
  C:\SILICONLABS\SIMPLICITYSTUDIO\V4\DEVELOPER\TOOLCHAINS\KEIL_8051\9.60\LIB\C51S.LIB (?C?PLDIIDATA)
         COMMENT TYPE 1: A51 / ASM51 Assembler
  C:\SILICONLABS\SIMPLICITYSTUDIO\V4\DEVELOPER\TOOLCHAINS\KEIL_8051\9.60\LIB\C51S.LIB (?C?PLDPTR)
         COMMENT TYPE 1: A51 / ASM51 Assembler
  C:\SILICONLABS\SIMPLICITYSTUDIO\V4\DEVELOPER\TOOLCHAINS\KEIL_8051\9.60\LIB\C51S.LIB (?C?CCASE)
         COMMENT TYPE 1: A51 / ASM51 Assembler
  C:\SILICONLABS\SIMPLICITYSTUDIO\V4\DEVELOPER\TOOLCHAINS\KEIL_8051\9.60\LIB\C51S.LIB (PUTCHAR)
         COMMENT TYPE 1: A51 / ASM51 Assembler
  C:\SILICONLABS\SIMPLICITYSTUDIO\V4\DEVELOPER\TOOLCHAINS\KEIL_8051\9.60\LIB\C51S.LIB (STRTOL)
         COMMENT TYPE 1: C51 Compiler
  C:\SILICONLABS\SIMPLICITYSTUDIO\V4\DEVELOPER\TOOLCHAINS\KEIL_8051\9.60\LIB\C51S.LIB (?C?LMUL)
         COMMENT TYPE 1: A51 / ASM51 Assembler
  C:\SILICONLABS\SIMPLICITYSTUDIO\V4\DEVELOPER\TOOLCHAINS\KEIL_8051\9.60\LIB\C51S.LIB (?C?LLDIDATA)
         COMMENT TYPE 1: A51 / ASM51 Assembler
  C:\SILICONLABS\SIMPLICITYSTUDIO\V4\DEVELOPER\TOOLCHAINS\KEIL_8051\9.60\LIB\C51S.LIB (?C?LLDXDATA)
         COMMENT TYPE 1: A51 / ASM51 Assembler
  C:\SILICONLABS\SIMPLICITYSTUDIO\V4\DEVELOPER\TOOLCHAINS\KEIL_8051\9.60\LIB\C51S.LIB (?C?LLDPDATA)
         COMMENT TYPE 1: A51 / ASM51 Assembler
  C:\SILICONLABS\SIMPLICITYSTUDIO\V4\DEVELOPER\TOOLCHAINS\KEIL_8051\9.60\LIB\C51S.LIB (?C?PLDIDATA)
         COMMENT TYPE 1: A51 / ASM51 Assembler
  C:\SILICONLABS\SIMPLICITYSTUDIO\V4\DEVELOPER\TOOLCHAINS\KEIL_8051\9.60\LIB\C51S.LIB (?C?PLDXDATA)
         COMMENT TYPE 1: A51 / ASM51 Assembler
  C:\SILICONLABS\SIMPLICITYSTUDIO\V4\DEVELOPER\TOOLCHAINS\KEIL_8051\9.60\LIB\C51S.LIB (?C?PLDPDATA)
         COMMENT TYPE 1: A51 / ASM51 Assembler
  C:\SILICONLABS\SIMPLICITYSTUDIO\V4\DEVELOPER\TOOLCHAINS\KEIL_8051\9.60\LIB\C51S.LIB (?C?PLDCODE)
         COMMENT TYPE 1: A51 / ASM51 Assembler
  C:\SILICONLABS\SIMPLICITYSTUDIO\V4\DEVELOPER\TOOLCHAINS\KEIL_8051\9.60\LIB\C51S.LIB (?C?PSTPTR)
         COMMENT TYPE 1: A51 / ASM51 Assembler
  C:\SILICONLABS\SIMPLICITYSTUDIO\V4\DEVELOPER\TOOLCHAINS\KEIL_8051\9.60\LIB\C51S.LIB (?C?PSTIDATA)
         COMMENT TYPE 1: A51 / ASM51 Assembler
  C:\SILICONLABS\SIMPLICITYSTUDIO\V4\DEVELOPER\TOOLCHAINS\KEIL_8051\9.60\LIB\C51S.LIB (?C?PSTXDATA)
         COMMENT TYPE 1: A51 / ASM51 Assembler
  C:\SILICONLABS\SIMPLICITYSTUDIO\V4\DEVELOPER\TOOLCHAINS\KEIL_8051\9.60\LIB\C51S.LIB (?C?PSTPDATA)
         COMMENT TYPE 1: A51 / ASM51 Assembler


ACTIVE MEMORY CLASSES OF MODULE:  EFM8BB10F4G-A-QFN20.OMF.CRBUILD (EFM8BB10F4G_A_QFN20_MAIN)

BASE        START       END         USED      MEMORY CLASS
==========================================================
C:000000H   C:000000H   C:001FFEH             ECODE
C:000000H   C:000000H   C:001FFEH             HCONST
X:000000H   X:000000H   X:0000FFH   0000C3H   XDATA
LX51 LINKER/LOCATER V4.66.97.0                                                        08/09/2020  22:39:19  PAGE 3


X:000000H   X:000000H   X:0000FFH             HDATA
C:000000H   C:000000H   C:00FFFFH   001BD3H   CODE
I:000000H   I:000000H   I:00007FH   000035H   DATA
I:000020H.0 I:000020H.0 I:00002FH.7 000001H.5 BIT
C:000000H   C:000000H   C:00FFFFH   00000EH   CONST
I:000000H   I:000000H   I:0000FFH   000001H   IDATA


MEMORY MAP OF MODULE:  EFM8BB10F4G-A-QFN20.OMF.CRBUILD (EFM8BB10F4G_A_QFN20_MAIN)


START     STOP      LENGTH    ALIGN  RELOC    MEMORY CLASS   SEGMENT NAME
=========================================================================

* * * * * * * * * * *   D A T A   M E M O R Y   * * * * * * * * * * * * *
000000H   000007H   000008H   ---    AT..     DATA           "REG BANK 0"
000008H   00000CH   000005H   BYTE   UNIT     DATA           ?DT?EFM8BB10F4G_A_QFN20_MAIN
00000DH.0 00001FH.7 000013H.0 ---    ---      **GAP**
000020H.0 000021H.0 000001H.1 BIT    UNIT     BIT            _BIT_GROUP_
000021H.1 000021H.4 000000H.4 BIT    UNIT     BIT            ?BI?EFM8BB10F4G_A_QFN20_MAIN
000021H.5 000021H   000000H.3 ---    ---      **GAP**
000022H   000049H   000028H   BYTE   UNIT     DATA           _DATA_GROUP_
00004AH   00004AH   000001H   BYTE   UNIT     IDATA          ?STACK

* * * * * * * * * * *   C O D E   M E M O R Y   * * * * * * * * * * * * *
000000H   000002H   000003H   ---    OFFS..   CODE           ?CO?SILABS_STARTUP?3
000003H   00001DH   00001BH   BYTE   UNIT     CODE           ?PR?ENTER_DEFAULTMODE_FROM_RESET?INITDEVICE
00001EH   000021H   000004H   BYTE   UNIT     CODE           ?PR?PORTS_0_ENTER_DEFAULTMODE_FROM_RESET?INITDEVICE
000022H   000022H   000001H   BYTE   UNIT     CODE           ?PR?SILABS_STARTUP?EFM8BB10F4G_A_QFN20_MAIN
000023H   000025H   000003H   BYTE   OFFS..   CODE           ?EFM8BB10F4G_A_QFN20_MAIN?00023
000026H   000A00H   0009DBH   BYTE   UNIT     CODE           ?C?LIB_CODE
000A01H   000E6FH   00046FH   BYTE   UNIT     CODE           ?PR?PRINTF?PRINTF
000E70H   00120BH   00039CH   BYTE   UNIT     CODE           ?PR?MAIN?EFM8BB10F4G_A_QFN20_MAIN
00120CH   0013A3H   000198H   BYTE   UNIT     CODE           ?PR?_STRTOL?STRTOL
0013A4H   0014D8H   000135H   BYTE   UNIT     CODE           ?PR?LOG?LOG
0014D9H   0015EFH   000117H   BYTE   UNIT     CODE           ?PR?_POW?POW
0015F0H   0016B7H   0000C8H   BYTE   UNIT     CODE           ?PR?_UART_BEGIN?EFM8BB10F4G_A_QFN20_MAIN
0016B8H   001751H   00009AH   BYTE   UNIT     CODE           ?PR?EXP?EXP
001752H   0017E9H   000098H   BYTE   UNIT     CODE           ?C_INITSEG
0017EAH   00187EH   000095H   BYTE   UNIT     CODE           ?PR?_UART_SEND?EFM8BB10F4G_A_QFN20_MAIN
00187FH   00190DH   00008FH   BYTE   UNIT     CODE           ?C_C51STARTUP
00190EH   001988H   00007BH   BYTE   UNIT     CODE           ?PR?_LED__SENDBYTE_?WS2812
001989H   0019F2H   00006AH   BYTE   UNIT     CODE           ?PR?UART0_ISR?EFM8BB10F4G_A_QFN20_MAIN
0019F3H   001A3BH   000049H   BYTE   UNIT     CODE           ?PR?WDT_0_ENTER_DEFAULTMODE_FROM_RESET?INITDEVICE
001A3CH   001A7FH   000044H   BYTE   UNIT     CODE           ?C?LDIV
001A80H   001AC2H   000043H   BYTE   UNIT     CODE           ?PR?_LED_MAIN?WS2812
001AC3H   001AFBH   000039H   BYTE   UNIT     CODE           ?PR?UART_AVAILABLE?EFM8BB10F4G_A_QFN20_MAIN
001AFCH   001B2FH   000034H   BYTE   UNIT     CODE           ?PR?_GAMMA?WS2812
001B30H   001B56H   000027H   BYTE   UNIT     CODE           ?PR?PUTCHAR?PUTCHAR
001B57H   001B6CH   000016H   BYTE   UNIT     CODE           ?PR?TIMER16_2_ENTER_DEFAULTMODE_FROM_RESET?INITDEVICE
001B6DH   001B7EH   000012H   BYTE   UNIT     CODE           ?PR?LED__SENDONE_?WS2812
001B7FH   001B8FH   000011H   BYTE   UNIT     CODE           ?PR?UART_READBYTE?EFM8BB10F4G_A_QFN20_MAIN
001B90H   001BA0H   000011H   BYTE   UNIT     CODE           ?PR?LED__SENDZERO_?WS2812
001BA1H   001BB1H   000011H   BYTE   UNIT     CODE           ?PR?LED_LATCH?WS2812
001BB2H   001BBBH   00000AH   BYTE   UNIT     CODE           ?PR?TIMER_SETUP_0_ENTER_DEFAULTMODE_FROM_RESET?INITDEVICE
001BBCH   001BC2H   000007H   BYTE   UNIT     CODE           ?PR?PBCFG_0_ENTER_DEFAULTMODE_FROM_RESET?INITDEVICE
001BC3H   001BC6H   000004H   BYTE   UNIT     CODE           ?PR?PORTS_1_ENTER_DEFAULTMODE_FROM_RESET?INITDEVICE
001BC7H   001BCAH   000004H   BYTE   UNIT     CODE           ?PR?CLOCK_0_ENTER_DEFAULTMODE_FROM_RESET?INITDEVICE
001BCBH   001BCEH   000004H   BYTE   UNIT     CODE           ?PR?INTERRUPT_0_ENTER_DEFAULTMODE_FROM_RESET?INITDEVICE
001BCFH   001BD2H   000004H   BYTE   UNIT     CODE           ?PR?UART_0_ENTER_DEFAULTMODE_FROM_RESET?INITDEVICE
001BD3H   001BE0H   00000EH   BYTE   UNIT     CONST          ?CO?EFM8BB10F4G_A_QFN20_MAIN

LX51 LINKER/LOCATER V4.66.97.0                                                        08/09/2020  22:39:19  PAGE 4


* * * * * * * * * * *  X D A T A   M E M O R Y  * * * * * * * * * * * * *
000000H   000077H   000078H   BYTE   UNIT     XDATA          ?XD?EFM8BB10F4G_A_QFN20_MAIN
000078H   0000C2H   00004BH   BYTE   UNIT     XDATA          _XDATA_GROUP_

* * * * * * * * *   R E M O V E D     S E G M E N T S   * * * * * * * *
   *DEL*:           000009H   BYTE   UNIT     CODE           ?PR?UART_END?EFM8BB10F4G_A_QFN20_MAIN
   *DEL*:           000005H   BYTE   UNIT     CODE           ?PR?_UART_SENDSIZE?EFM8BB10F4G_A_QFN20_MAIN
   *DEL*:           000007H   BYTE   UNIT     CODE           ?PR?UART_READ?EFM8BB10F4G_A_QFN20_MAIN
   *DEL*:           000009H   BYTE   UNIT     CODE           ?PR?_SI_INTERRUPT?INTERRUPTS
   *DEL*:           000004H   BYTE   UNIT     DATA           ?DT?_SI_INTERRUPT?INTERRUPTS



OVERLAY MAP OF MODULE:   EFM8BB10F4G-A-QFN20.OMF.CRBUILD (EFM8BB10F4G_A_QFN20_MAIN)


FUNCTION/MODULE                                BIT_GROUP   DATA_GROUP   XDATA_GROUP
--> CALLED FUNCTION/MODULE                    START  STOP  START  STOP  START  STOP
===================================================================================
UART0_ISR/EFM8BB10F4G_A_QFN20_MAIN            ----- -----  ----- -----  ----- -----

*** NEW ROOT ********************************

?C_C51STARTUP                                 ----- -----  ----- -----  ----- -----
  +--> SILABS_STARTUP/EFM8BB10F4G_A_QFN20_MAIN
  +--> MAIN/EFM8BB10F4G_A_QFN20_MAIN
  +--> ?C_INITSEG

SILABS_STARTUP/EFM8BB10F4G_A_QFN20_MAIN       ----- -----  ----- -----  ----- -----

MAIN/EFM8BB10F4G_A_QFN20_MAIN                 ----- -----  0022H 002DH  0078H 00C0H
  +--> ENTER_DEFAULTMODE_FROM_RESET/INITDEVICE
  +--> _UART_BEGIN/EFM8BB10F4G_A_QFN20_MAIN
  +--> _LED_MAIN/WS2812
  +--> PRINTF/PRINTF
  +--> _STRTOL/STRTOL
  +--> UART_AVAILABLE/EFM8BB10F4G_A_QFN20_MAIN
  +--> UART_READBYTE/EFM8BB10F4G_A_QFN20_MAIN
  +--> _UART_SEND/EFM8BB10F4G_A_QFN20_MAIN

ENTER_DEFAULTMODE_FROM_RESET/INITDEVICE       ----- -----  ----- -----  ----- -----
  +--> WDT_0_ENTER_DEFAULTMODE_FROM_RESET/INITDEVICE
  +--> PORTS_0_ENTER_DEFAULTMODE_FROM_RESET/INITDEVICE
  +--> PORTS_1_ENTER_DEFAULTMODE_FROM_RESET/INITDEVICE
  +--> PBCFG_0_ENTER_DEFAULTMODE_FROM_RESET/INITDEVICE
  +--> CLOCK_0_ENTER_DEFAULTMODE_FROM_RESET/INITDEVICE
  +--> TIMER16_2_ENTER_DEFAULTMODE_FROM_RESET/INITDEVICE
  +--> TIMER_SETUP_0_ENTER_DEFAULTMODE_FROM_RESET/INITDEVICE
  +--> UART_0_ENTER_DEFAULTMODE_FROM_RESET/INITDEVICE
  +--> INTERRUPT_0_ENTER_DEFAULTMODE_FROM_RESET/INITDEVICE

WDT_0_ENTER_DEFAULTMODE_FROM_RESET/INITD+     20H.0 20H.0  002EH 0031H  ----- -----
... EVICE

PORTS_0_ENTER_DEFAULTMODE_FROM_RESET/INI+     ----- -----  ----- -----  ----- -----
... TDEVICE

PORTS_1_ENTER_DEFAULTMODE_FROM_RESET/INI+     ----- -----  ----- -----  ----- -----
... TDEVICE

PBCFG_0_ENTER_DEFAULTMODE_FROM_RESET/INI+     ----- -----  ----- -----  ----- -----
... TDEVICE
LX51 LINKER/LOCATER V4.66.97.0                                                        08/09/2020  22:39:19  PAGE 5



CLOCK_0_ENTER_DEFAULTMODE_FROM_RESET/INI+     ----- -----  ----- -----  ----- -----
... TDEVICE

TIMER16_2_ENTER_DEFAULTMODE_FROM_RESET/I+     ----- -----  ----- -----  ----- -----
... NITDEVICE

TIMER_SETUP_0_ENTER_DEFAULTMODE_FROM_RES+     ----- -----  ----- -----  ----- -----
... ET/INITDEVICE

UART_0_ENTER_DEFAULTMODE_FROM_RESET/INIT+     ----- -----  ----- -----  ----- -----
... DEVICE

INTERRUPT_0_ENTER_DEFAULTMODE_FROM_RESET+     ----- -----  ----- -----  ----- -----
... /INITDEVICE

_UART_BEGIN/EFM8BB10F4G_A_QFN20_MAIN          ----- -----  002EH 0031H  00C1H 00C2H

_LED_MAIN/WS2812                              ----- -----  002EH 0031H  ----- -----
  +--> _GAMMA/WS2812
  +--> _LED__SENDBYTE_?WS2812
  +--> LED_LATCH/WS2812

_GAMMA/WS2812                                 ----- -----  ----- -----  ----- -----
  +--> _POW/POW

_POW/POW                                      ----- -----  0032H 003BH  ----- -----
  +--> LOG/LOG
  +--> EXP/EXP

LOG/LOG                                       20H.0 20H.0  003CH 003FH  ----- -----

EXP/EXP                                       ----- -----  ----- -----  ----- -----

_LED__SENDBYTE_?WS2812                        ----- -----  ----- -----  ----- -----
  +--> LED__SENDONE_?WS2812
  +--> LED__SENDZERO_?WS2812

LED__SENDONE_?WS2812                          ----- -----  ----- -----  ----- -----

LED__SENDZERO_?WS2812                         ----- -----  ----- -----  ----- -----

LED_LATCH/WS2812                              ----- -----  ----- -----  ----- -----

PRINTF/PRINTF                                 20H.0 21H.0  002EH 0049H  ----- -----
  +--> PUTCHAR/PUTCHAR

PUTCHAR/PUTCHAR                               ----- -----  ----- -----  ----- -----

_STRTOL/STRTOL                                ----- -----  002EH 003BH  ----- -----

UART_AVAILABLE/EFM8BB10F4G_A_QFN20_MAIN       20H.0 20H.0  ----- -----  ----- -----

UART_READBYTE/EFM8BB10F4G_A_QFN20_MAIN        ----- -----  ----- -----  ----- -----

_UART_SEND/EFM8BB10F4G_A_QFN20_MAIN           ----- -----  002EH 0030H  ----- -----

?C_INITSEG                                    ----- -----  ----- -----  ----- -----



PUBLIC SYMBOLS OF MODULE:  EFM8BB10F4G-A-QFN20.OMF.CRBUILD (EFM8BB10F4G_A_QFN20_MAIN)
LX51 LINKER/LOCATER V4.66.97.0                                                        08/09/2020  22:39:19  PAGE 6




      VALUE       CLASS    TYPE      PUBLIC SYMBOL NAME
      =================================================
      00000032H   DATA     ---       ?_pow?BYTE
      0000002EH   DATA     ---       ?_PRINTF?BYTE
      0000002EH   DATA     ---       ?_SPRINTF?BYTE
      0000002EH   DATA     ---       ?_strtol?BYTE
      01000302H   CODE     ---       ?C?CASTF
      010008D7H   CODE     ---       ?C?CCASE
      01000383H   CODE     ---       ?C?CHKFLOAT
      01000725H   CODE     ---       ?C?CLDOPTR
      0100070CH   CODE     ---       ?C?CLDPTR
      00000000H   NUMBER   ---       ?C?CODESEG
      010006E6H   CODE     ---       ?C?COPY
      01000752H   CODE     ---       ?C?CSTPTR
      010002CEH   CODE     ---       ?C?FCASTC
      010002C9H   CODE     ---       ?C?FCASTI
      010002C4H   CODE     ---       ?C?FCASTL
      010005C9H   CODE     ---       ?C?FP2SERIES
      0100002DH   CODE     ---       ?C?FPADD
      0100039FH   CODE     ---       ?C?FPCMP
      0100039DH   CODE     ---       ?C?FPCMP3
      01000456H   CODE     ---       ?C?FPCONVERT
      01000227H   CODE     ---       ?C?FPDIV
      01000339H   CODE     ---       ?C?FPGETOPN2
      0100011EH   CODE     ---       ?C?FPMUL
      0100036EH   CODE     ---       ?C?FPNANRESULT
      01000416H   CODE     ---       ?C?FPNEG
      01000378H   CODE     ---       ?C?FPOVERFLOW
      01000350H   CODE     ---       ?C?FPRESULT
      01000364H   CODE     ---       ?C?FPRESULT2
      01000427H   CODE     ---       ?C?FPROUND
      010005D8H   CODE     ---       ?C?FPSERIES
      01000029H   CODE     ---       ?C?FPSUB
      01000375H   CODE     ---       ?C?FPUNDERFLOW
      01000589H   CODE     ---       ?C?FTNPWR
      01000764H   CODE     ---       ?C?IILDX
      01000887H   CODE     ---       ?C?LLDCODE
      01000897H   CODE     ---       ?C?LLDCODE0
      0100094CH   CODE     ---       ?C?LLDIDATA
      01000964H   CODE     ---       ?C?LLDPDATA
      01000867H   CODE     ---       ?C?LLDPTR
      01000958H   CODE     ---       ?C?LLDXDATA
      010008FDH   CODE     ---       ?C?LMUL
      01000848H   CODE     ---       ?C?LNEG
      0100098BH   CODE     ---       ?C?PLDCODE
      01000970H   CODE     ---       ?C?PLDIDATA
      010008A7H   CODE     ---       ?C?PLDIIDATA
      01000982H   CODE     ---       ?C?PLDPDATA
      010008B7H   CODE     ---       ?C?PLDPTR
      01000979H   CODE     ---       ?C?PLDXDATA
      010009E6H   CODE     ---       ?C?PSTIDATA
      010009F8H   CODE     ---       ?C?PSTPDATA
      01000997H   CODE     ---       ?C?PSTPTR
      010009EFH   CODE     ---       ?C?PSTXDATA
      01001A3CH   CODE     ---       ?C?SLDIV
      01000856H   CODE     ---       ?C?ULCMP
      010007B6H   CODE     ---       ?C?ULDIV
      00000000H   NUMBER   ---       ?C?XDATASEG
      010018C9H   CODE     ---       ?C_START
      01000000H   CODE     NEAR LAB  ?C_STARTUP
LX51 LINKER/LOCATER V4.66.97.0                                                        08/09/2020  22:39:19  PAGE 7


      00000020H.0 BIT      BIT       ?UART_Available?BIT
      010016F0H   CODE     ---       _EXP
      01001AFCH   CODE     ---       _gamma
      0100191AH   CODE     ---       _LED__SendByte_
      01001A80H   CODE     ---       _LED_main
      010013D8H   CODE     ---       _LOG
      010013D4H   CODE     ---       _LOG10
      010014D9H   CODE     ---       _pow
      01000A63H   CODE     ---       _PRINTF
      01001B30H   CODE     ---       _PUTCHAR
*DEL*:00000000H   CODE     ---       _SI_INTERRUPT
      01000A5DH   CODE     ---       _SPRINTF
      0100120CH   CODE     ---       _strtol
      010015F0H   CODE     ---       _UART_Begin
      01001804H   CODE     ---       _UART_Send
*DEL*:00000000H   CODE     ---       _UART_SendSize
*SFR* 000000E0H   DATA     BYTE      ACC
*SFR* 000000E0H.0 DATA     BIT       ACC_ACC0
*SFR* 000000E0H.1 DATA     BIT       ACC_ACC1
*SFR* 000000E0H.2 DATA     BIT       ACC_ACC2
*SFR* 000000E0H.3 DATA     BIT       ACC_ACC3
*SFR* 000000E0H.4 DATA     BIT       ACC_ACC4
*SFR* 000000E0H.5 DATA     BIT       ACC_ACC5
*SFR* 000000E0H.6 DATA     BIT       ACC_ACC6
*SFR* 000000E0H.7 DATA     BIT       ACC_ACC7
*SFR* 000000BDH   DATA     WORD      ADC0
*SFR* 000000B3H   DATA     BYTE      ADC0AC
*SFR* 000000BCH   DATA     BYTE      ADC0CF
*SFR* 000000E8H   DATA     BYTE      ADC0CN0
*SFR* 000000E8H.6 DATA     BIT       ADC0CN0_ADBMEN
*SFR* 000000E8H.4 DATA     BIT       ADC0CN0_ADBUSY
*SFR* 000000E8H.0 DATA     BIT       ADC0CN0_ADCM0
*SFR* 000000E8H.1 DATA     BIT       ADC0CN0_ADCM1
*SFR* 000000E8H.2 DATA     BIT       ADC0CN0_ADCM2
*SFR* 000000E8H.7 DATA     BIT       ADC0CN0_ADEN
*SFR* 000000E8H.5 DATA     BIT       ADC0CN0_ADINT
*SFR* 000000E8H.3 DATA     BIT       ADC0CN0_ADWINT
*SFR* 000000B2H   DATA     BYTE      ADC0CN1
*SFR* 000000C3H   DATA     WORD      ADC0GT
*SFR* 000000C4H   DATA     BYTE      ADC0GTH
*SFR* 000000C3H   DATA     BYTE      ADC0GTL
*SFR* 000000BEH   DATA     BYTE      ADC0H
*SFR* 000000BDH   DATA     BYTE      ADC0L
*SFR* 000000C5H   DATA     WORD      ADC0LT
*SFR* 000000C6H   DATA     BYTE      ADC0LTH
*SFR* 000000C5H   DATA     BYTE      ADC0LTL
*SFR* 000000BBH   DATA     BYTE      ADC0MX
*SFR* 000000DFH   DATA     BYTE      ADC0PWR
*SFR* 000000B9H   DATA     BYTE      ADC0TK
*SFR* 000000F0H   DATA     BYTE      B
*SFR* 000000F0H.0 DATA     BIT       B_B0
*SFR* 000000F0H.1 DATA     BIT       B_B1
*SFR* 000000F0H.2 DATA     BIT       B_B2
*SFR* 000000F0H.3 DATA     BIT       B_B3
*SFR* 000000F0H.4 DATA     BIT       B_B4
*SFR* 000000F0H.5 DATA     BIT       B_B5
*SFR* 000000F0H.6 DATA     BIT       B_B6
*SFR* 000000F0H.7 DATA     BIT       B_B7
*SFR* 0000008EH   DATA     BYTE      CKCON0
*SFR* 000000A9H   DATA     BYTE      CLKSEL
      01001BC7H   CODE     ---       CLOCK_0_enter_DefaultMode_from_RESET
*SFR* 0000009BH   DATA     BYTE      CMP0CN0
LX51 LINKER/LOCATER V4.66.97.0                                                        08/09/2020  22:39:19  PAGE 8


*SFR* 0000009DH   DATA     BYTE      CMP0MD
*SFR* 0000009FH   DATA     BYTE      CMP0MX
*SFR* 000000BFH   DATA     BYTE      CMP1CN0
*SFR* 000000ABH   DATA     BYTE      CMP1MD
*SFR* 000000AAH   DATA     BYTE      CMP1MX
*SFR* 000000D2H   DATA     BYTE      CRC0AUTO
*SFR* 000000CEH   DATA     BYTE      CRC0CN0
*SFR* 000000D3H   DATA     BYTE      CRC0CNT
*SFR* 000000DEH   DATA     BYTE      CRC0DAT
*SFR* 000000CFH   DATA     BYTE      CRC0FLIP
*SFR* 000000DDH   DATA     BYTE      CRC0IN
*SFR* 000000ADH   DATA     BYTE      DERIVID
*SFR* 00000080H.1 DATA     BIT       DET_A
*SFR* 00000090H.5 DATA     BIT       DET_B
*SFR* 00000080H.6 DATA     BIT       DET_C
*SFR* 000000B5H   DATA     BYTE      DEVICEID
*SFR* 00000082H   DATA     WORD      DP
*SFR* 00000083H   DATA     BYTE      DPH
*SFR* 00000082H   DATA     BYTE      DPL
*SFR* 000000E6H   DATA     BYTE      EIE1
*SFR* 000000F3H   DATA     BYTE      EIP1
      01000003H   CODE     ---       enter_DefaultMode_from_RESET
*SFR* 000000B7H   DATA     BYTE      FLKEY
*SFR* 000000C7H   DATA     BYTE      HFO0CAL
*SFR* 000000A8H   DATA     BYTE      IE
*SFR* 000000A8H.7 DATA     BIT       IE_EA
*SFR* 000000A8H.4 DATA     BIT       IE_ES0
*SFR* 000000A8H.6 DATA     BIT       IE_ESPI0
*SFR* 000000A8H.1 DATA     BIT       IE_ET0
*SFR* 000000A8H.3 DATA     BIT       IE_ET1
*SFR* 000000A8H.5 DATA     BIT       IE_ET2
*SFR* 000000A8H.0 DATA     BIT       IE_EX0
*SFR* 000000A8H.2 DATA     BIT       IE_EX1
      01001BCBH   CODE     ---       INTERRUPT_0_enter_DefaultMode_from_RESET
*SFR* 000000B8H   DATA     BYTE      IP
*SFR* 000000B8H.4 DATA     BIT       IP_PS0
*SFR* 000000B8H.6 DATA     BIT       IP_PSPI0
*SFR* 000000B8H.1 DATA     BIT       IP_PT0
*SFR* 000000B8H.3 DATA     BIT       IP_PT1
*SFR* 000000B8H.5 DATA     BIT       IP_PT2
*SFR* 000000B8H.0 DATA     BIT       IP_PX0
*SFR* 000000B8H.2 DATA     BIT       IP_PX1
*SFR* 000000E4H   DATA     BYTE      IT01CF
      01001B6DH   CODE     ---       LED__SendOne_
      01001B90H   CODE     ---       LED__SendZero_
      01001BA1H   CODE     ---       LED_Latch
*SFR* 000000B1H   DATA     BYTE      LFO0CN
      01000E70H   CODE     ---       main
*SFR* 00000080H   DATA     BYTE      P0
*SFR* 00000080H.0 DATA     BIT       P0_B0
*SFR* 00000080H.1 DATA     BIT       P0_B1
*SFR* 00000080H.2 DATA     BIT       P0_B2
*SFR* 00000080H.3 DATA     BIT       P0_B3
*SFR* 00000080H.4 DATA     BIT       P0_B4
*SFR* 00000080H.5 DATA     BIT       P0_B5
*SFR* 00000080H.6 DATA     BIT       P0_B6
*SFR* 00000080H.7 DATA     BIT       P0_B7
*SFR* 000000FEH   DATA     BYTE      P0MASK
*SFR* 000000FDH   DATA     BYTE      P0MAT
*SFR* 000000F1H   DATA     BYTE      P0MDIN
*SFR* 000000A4H   DATA     BYTE      P0MDOUT
*SFR* 000000D4H   DATA     BYTE      P0SKIP
LX51 LINKER/LOCATER V4.66.97.0                                                        08/09/2020  22:39:19  PAGE 9


*SFR* 00000090H   DATA     BYTE      P1
*SFR* 00000090H.0 DATA     BIT       P1_B0
*SFR* 00000090H.1 DATA     BIT       P1_B1
*SFR* 00000090H.2 DATA     BIT       P1_B2
*SFR* 00000090H.3 DATA     BIT       P1_B3
*SFR* 00000090H.4 DATA     BIT       P1_B4
*SFR* 00000090H.5 DATA     BIT       P1_B5
*SFR* 00000090H.6 DATA     BIT       P1_B6
*SFR* 00000090H.7 DATA     BIT       P1_B7
*SFR* 000000EEH   DATA     BYTE      P1MASK
*SFR* 000000EDH   DATA     BYTE      P1MAT
*SFR* 000000F2H   DATA     BYTE      P1MDIN
*SFR* 000000A5H   DATA     BYTE      P1MDOUT
*SFR* 000000D5H   DATA     BYTE      P1SKIP
*SFR* 000000A0H   DATA     BYTE      P2
*SFR* 000000A0H.0 DATA     BIT       P2_B0
*SFR* 000000A0H.1 DATA     BIT       P2_B1
*SFR* 000000A6H   DATA     BYTE      P2MDOUT
      01001BBCH   CODE     ---       PBCFG_0_enter_DefaultMode_from_RESET
*SFR* 000000F9H   DATA     WORD      PCA0
*SFR* 0000009EH   DATA     BYTE      PCA0CENT
*SFR* 0000009CH   DATA     BYTE      PCA0CLR
*SFR* 000000D8H   DATA     BYTE      PCA0CN0
*SFR* 000000D8H.0 DATA     BIT       PCA0CN0_CCF0
*SFR* 000000D8H.1 DATA     BIT       PCA0CN0_CCF1
*SFR* 000000D8H.2 DATA     BIT       PCA0CN0_CCF2
*SFR* 000000D8H.7 DATA     BIT       PCA0CN0_CF
*SFR* 000000D8H.6 DATA     BIT       PCA0CN0_CR
*SFR* 000000FBH   DATA     WORD      PCA0CP0
*SFR* 000000E9H   DATA     WORD      PCA0CP1
*SFR* 000000EBH   DATA     WORD      PCA0CP2
*SFR* 000000FCH   DATA     BYTE      PCA0CPH0
*SFR* 000000EAH   DATA     BYTE      PCA0CPH1
*SFR* 000000ECH   DATA     BYTE      PCA0CPH2
*SFR* 000000FBH   DATA     BYTE      PCA0CPL0
*SFR* 000000E9H   DATA     BYTE      PCA0CPL1
*SFR* 000000EBH   DATA     BYTE      PCA0CPL2
*SFR* 000000DAH   DATA     BYTE      PCA0CPM0
*SFR* 000000DBH   DATA     BYTE      PCA0CPM1
*SFR* 000000DCH   DATA     BYTE      PCA0CPM2
*SFR* 000000FAH   DATA     BYTE      PCA0H
*SFR* 000000F9H   DATA     BYTE      PCA0L
*SFR* 000000D9H   DATA     BYTE      PCA0MD
*SFR* 00000096H   DATA     BYTE      PCA0POL
*SFR* 000000F7H   DATA     BYTE      PCA0PWM
*SFR* 00000087H   DATA     BYTE      PCON0
*SFR* 00000090H.0 DATA     BIT       PIX
      0100001EH   CODE     ---       PORTS_0_enter_DefaultMode_from_RESET
      01001BC3H   CODE     ---       PORTS_1_enter_DefaultMode_from_RESET
*SFR* 000000A0H   DATA     BYTE      PPAGE_SFR
*SFR* 000000F6H   DATA     BYTE      PRTDRV
*SFR* 0000008FH   DATA     BYTE      PSCTL
*SFR* 000000D0H   DATA     BYTE      PSW
*SFR* 000000D0H.6 DATA     BIT       PSW_AC
*SFR* 000000D0H.7 DATA     BIT       PSW_CY
*SFR* 000000D0H.5 DATA     BIT       PSW_F0
*SFR* 000000D0H.1 DATA     BIT       PSW_F1
*SFR* 000000D0H.2 DATA     BIT       PSW_OV
*SFR* 000000D0H.0 DATA     BIT       PSW_PARITY
*SFR* 000000D0H.3 DATA     BIT       PSW_RS0
*SFR* 000000D0H.4 DATA     BIT       PSW_RS1
*SFR* 000000D1H   DATA     BYTE      REF0CN
LX51 LINKER/LOCATER V4.66.97.0                                                        08/09/2020  22:39:19  PAGE 10


*SFR* 000000C9H   DATA     BYTE      REG0CN
*SFR* 000000B6H   DATA     BYTE      REVID
*SFR* 000000EFH   DATA     BYTE      RSTSRC
*SFR* 00000099H   DATA     BYTE      SBUF0
*SFR* 00000098H   DATA     BYTE      SCON0
*SFR* 00000098H.5 DATA     BIT       SCON0_MCE
*SFR* 00000098H.2 DATA     BIT       SCON0_RB8
*SFR* 00000098H.4 DATA     BIT       SCON0_REN
*SFR* 00000098H.0 DATA     BIT       SCON0_RI
*SFR* 00000098H.7 DATA     BIT       SCON0_SMODE
*SFR* 00000098H.3 DATA     BIT       SCON0_TB8
*SFR* 00000098H.1 DATA     BIT       SCON0_TI
      01000022H   CODE     ---       SiLabs_Startup
*SFR* 000000D6H   DATA     BYTE      SMB0ADM
*SFR* 000000D7H   DATA     BYTE      SMB0ADR
*SFR* 000000C1H   DATA     BYTE      SMB0CF
*SFR* 000000C0H   DATA     BYTE      SMB0CN0
*SFR* 000000C0H.1 DATA     BIT       SMB0CN0_ACK
*SFR* 000000C0H.3 DATA     BIT       SMB0CN0_ACKRQ
*SFR* 000000C0H.2 DATA     BIT       SMB0CN0_ARBLOST
*SFR* 000000C0H.7 DATA     BIT       SMB0CN0_MASTER
*SFR* 000000C0H.0 DATA     BIT       SMB0CN0_SI
*SFR* 000000C0H.5 DATA     BIT       SMB0CN0_STA
*SFR* 000000C0H.4 DATA     BIT       SMB0CN0_STO
*SFR* 000000C0H.6 DATA     BIT       SMB0CN0_TXMODE
*SFR* 000000C2H   DATA     BYTE      SMB0DAT
*SFR* 000000ACH   DATA     BYTE      SMB0TC
*SFR* 00000081H   DATA     BYTE      SP
*SFR* 000000A1H   DATA     BYTE      SPI0CFG
*SFR* 000000A2H   DATA     BYTE      SPI0CKR
*SFR* 000000F8H   DATA     BYTE      SPI0CN0
*SFR* 000000F8H.5 DATA     BIT       SPI0CN0_MODF
*SFR* 000000F8H.2 DATA     BIT       SPI0CN0_NSSMD0
*SFR* 000000F8H.3 DATA     BIT       SPI0CN0_NSSMD1
*SFR* 000000F8H.4 DATA     BIT       SPI0CN0_RXOVRN
*SFR* 000000F8H.0 DATA     BIT       SPI0CN0_SPIEN
*SFR* 000000F8H.7 DATA     BIT       SPI0CN0_SPIF
*SFR* 000000F8H.1 DATA     BIT       SPI0CN0_TXBMT
*SFR* 000000F8H.6 DATA     BIT       SPI0CN0_WCOL
*SFR* 000000A3H   DATA     BYTE      SPI0DAT
*SFR* 00000088H   DATA     BYTE      TCON
*SFR* 00000088H.1 DATA     BIT       TCON_IE0
*SFR* 00000088H.3 DATA     BIT       TCON_IE1
*SFR* 00000088H.0 DATA     BIT       TCON_IT0
*SFR* 00000088H.2 DATA     BIT       TCON_IT1
*SFR* 00000088H.5 DATA     BIT       TCON_TF0
*SFR* 00000088H.7 DATA     BIT       TCON_TF1
*SFR* 00000088H.4 DATA     BIT       TCON_TR0
*SFR* 00000088H.6 DATA     BIT       TCON_TR1
*SFR* 0000008CH   DATA     BYTE      TH0
*SFR* 0000008DH   DATA     BYTE      TH1
      01001B57H   CODE     ---       TIMER16_2_enter_DefaultMode_from_RESET
      01001BB2H   CODE     ---       TIMER_SETUP_0_enter_DefaultMode_from_RESET
*SFR* 0000008AH   DATA     BYTE      TL0
*SFR* 0000008BH   DATA     BYTE      TL1
*SFR* 00000089H   DATA     BYTE      TMOD
*SFR* 000000CCH   DATA     WORD      TMR2
*SFR* 000000C8H   DATA     BYTE      TMR2CN0
*SFR* 000000C8H.3 DATA     BIT       TMR2CN0_T2SPLIT
*SFR* 000000C8H.0 DATA     BIT       TMR2CN0_T2XCLK
*SFR* 000000C8H.4 DATA     BIT       TMR2CN0_TF2CEN
*SFR* 000000C8H.7 DATA     BIT       TMR2CN0_TF2H
LX51 LINKER/LOCATER V4.66.97.0                                                        08/09/2020  22:39:19  PAGE 11


*SFR* 000000C8H.6 DATA     BIT       TMR2CN0_TF2L
*SFR* 000000C8H.5 DATA     BIT       TMR2CN0_TF2LEN
*SFR* 000000C8H.2 DATA     BIT       TMR2CN0_TR2
*SFR* 000000CDH   DATA     BYTE      TMR2H
*SFR* 000000CCH   DATA     BYTE      TMR2L
*SFR* 000000CAH   DATA     WORD      TMR2RL
*SFR* 000000CBH   DATA     BYTE      TMR2RLH
*SFR* 000000CAH   DATA     BYTE      TMR2RLL
*SFR* 00000094H   DATA     WORD      TMR3
*SFR* 00000091H   DATA     BYTE      TMR3CN0
*SFR* 00000095H   DATA     BYTE      TMR3H
*SFR* 00000094H   DATA     BYTE      TMR3L
*SFR* 00000092H   DATA     WORD      TMR3RL
*SFR* 00000093H   DATA     BYTE      TMR3RLH
*SFR* 00000092H   DATA     BYTE      TMR3RLL
      01001989H   CODE     ---       UART0_ISR
      01001BCFH   CODE     ---       UART_0_enter_DefaultMode_from_RESET
      01001AC3H   CODE     ---       UART_Available
*DEL*:00000000H   CODE     ---       UART_End
      00000021H.4 BIT      BIT       UART_INTERRUPT
*DEL*:00000000H   CODE     ---       UART_Read
      01001B7FH   CODE     ---       UART_ReadByte
      02000000H   XDATA    ---       UART_RX_BUFFER
*SFR* 000000FFH   DATA     BYTE      VDM0CN
      010019F3H   CODE     ---       WDT_0_enter_DefaultMode_from_RESET
*SFR* 00000097H   DATA     BYTE      WDTCN
*SFR* 000000E1H   DATA     BYTE      XBR0
*SFR* 000000E2H   DATA     BYTE      XBR1
*SFR* 000000E3H   DATA     BYTE      XBR2



SYMBOL TABLE OF MODULE:  EFM8BB10F4G-A-QFN20.OMF.CRBUILD (EFM8BB10F4G_A_QFN20_MAIN)

      VALUE       REP       CLASS    TYPE      SYMBOL NAME
      ====================================================
      ---         MODULE    ---      ---       EFM8BB10F4G_A_QFN20_MAIN
      00000021H.4 PUBLIC    BIT      BIT       UART_INTERRUPT
      02000000H   PUBLIC    XDATA    ---       UART_RX_BUFFER
      01000E70H   PUBLIC    CODE     ---       main
      01000022H   PUBLIC    CODE     ---       SiLabs_Startup
      01001989H   PUBLIC    CODE     ---       UART0_ISR
      00000020H.0 PUBLIC    BIT      BIT       ?UART_Available?BIT
      01001AC3H   PUBLIC    CODE     ---       UART_Available
      01001B7FH   PUBLIC    CODE     ---       UART_ReadByte
      01001804H   PUBLIC    CODE     ---       _UART_Send
      010015F0H   PUBLIC    CODE     ---       _UART_Begin
      00000080H.1 SFRSYM    DATA     BIT       DET_A
      000000A2H   SFRSYM    DATA     BYTE      SPI0CKR
      00000090H.5 SFRSYM    DATA     BIT       DET_B
      00000080H   SFRSYM    DATA     BYTE      P0
      00000080H.6 SFRSYM    DATA     BIT       DET_C
      000000D0H.2 SFRSYM    DATA     BIT       PSW_OV
      00000090H   SFRSYM    DATA     BYTE      P1
      00000097H   SFRSYM    DATA     BYTE      WDTCN
      000000A0H   SFRSYM    DATA     BYTE      P2
      000000BCH   SFRSYM    DATA     BYTE      ADC0CF
      000000C8H.0 SFRSYM    DATA     BIT       TMR2CN0_T2XCLK
      000000C0H.7 SFRSYM    DATA     BIT       SMB0CN0_MASTER
      000000F9H   SFRSYM    DATA     WORD      PCA0
      000000E6H   SFRSYM    DATA     BYTE      EIE1
      000000C0H.1 SFRSYM    DATA     BIT       SMB0CN0_ACK
LX51 LINKER/LOCATER V4.66.97.0                                                        08/09/2020  22:39:19  PAGE 12


      0000008FH   SFRSYM    DATA     BYTE      PSCTL
      000000E4H   SFRSYM    DATA     BYTE      IT01CF
      000000C0H.6 SFRSYM    DATA     BIT       SMB0CN0_TXMODE
      000000ADH   SFRSYM    DATA     BYTE      DERIVID
      000000A4H   SFRSYM    DATA     BYTE      P0MDOUT
      000000A5H   SFRSYM    DATA     BYTE      P1MDOUT
      000000E8H.5 SFRSYM    DATA     BIT       ADC0CN0_ADINT
      000000CBH   SFRSYM    DATA     BYTE      TMR2RLH
      000000A6H   SFRSYM    DATA     BYTE      P2MDOUT
      000000A8H   SFRSYM    DATA     BYTE      IE
      00000093H   SFRSYM    DATA     BYTE      TMR3RLH
      000000F3H   SFRSYM    DATA     BYTE      EIP1
      00000098H.2 SFRSYM    DATA     BIT       SCON0_RB8
      000000CAH   SFRSYM    DATA     BYTE      TMR2RLL
      000000FCH   SFRSYM    DATA     BYTE      PCA0CPH0
      00000092H   SFRSYM    DATA     BYTE      TMR3RLL
      000000EAH   SFRSYM    DATA     BYTE      PCA0CPH1
      00000098H.3 SFRSYM    DATA     BIT       SCON0_TB8
      000000F0H.0 SFRSYM    DATA     BIT       B_B0
      00000082H   SFRSYM    DATA     WORD      DP
      000000ECH   SFRSYM    DATA     BYTE      PCA0CPH2
      000000F0H.1 SFRSYM    DATA     BIT       B_B1
      000000C3H   SFRSYM    DATA     WORD      ADC0GT
      000000F0H.2 SFRSYM    DATA     BIT       B_B2
      000000FBH   SFRSYM    DATA     BYTE      PCA0CPL0
      000000F0H.3 SFRSYM    DATA     BIT       B_B3
      000000D9H   SFRSYM    DATA     BYTE      PCA0MD
      000000DAH   SFRSYM    DATA     BYTE      PCA0CPM0
      000000E9H   SFRSYM    DATA     BYTE      PCA0CPL1
      000000F0H.4 SFRSYM    DATA     BIT       B_B4
      000000DBH   SFRSYM    DATA     BYTE      PCA0CPM1
      000000EBH   SFRSYM    DATA     BYTE      PCA0CPL2
      000000F0H.5 SFRSYM    DATA     BIT       B_B5
      000000DCH   SFRSYM    DATA     BYTE      PCA0CPM2
      000000B8H   SFRSYM    DATA     BYTE      IP
      000000B9H   SFRSYM    DATA     BYTE      ADC0TK
      000000F0H.6 SFRSYM    DATA     BIT       B_B6
      000000C5H   SFRSYM    DATA     WORD      ADC0LT
      00000098H.5 SFRSYM    DATA     BIT       SCON0_MCE
      000000F0H.7 SFRSYM    DATA     BIT       B_B7
      000000E1H   SFRSYM    DATA     BYTE      XBR0
      000000C1H   SFRSYM    DATA     BYTE      SMB0CF
      000000E2H   SFRSYM    DATA     BYTE      XBR1
      000000C0H.5 SFRSYM    DATA     BIT       SMB0CN0_STA
      000000E3H   SFRSYM    DATA     BYTE      XBR2
      000000BBH   SFRSYM    DATA     BYTE      ADC0MX
      000000E0H.0 SFRSYM    DATA     BIT       ACC_ACC0
      000000D1H   SFRSYM    DATA     BYTE      REF0CN
      0000008EH   SFRSYM    DATA     BYTE      CKCON0
      000000E0H.1 SFRSYM    DATA     BIT       ACC_ACC1
      000000C9H   SFRSYM    DATA     BYTE      REG0CN
      000000DDH   SFRSYM    DATA     BYTE      CRC0IN
      000000C8H.2 SFRSYM    DATA     BIT       TMR2CN0_TR2
      000000E0H.2 SFRSYM    DATA     BIT       ACC_ACC2
      000000E0H.3 SFRSYM    DATA     BIT       ACC_ACC3
      00000081H   SFRSYM    DATA     BYTE      SP
      0000009DH   SFRSYM    DATA     BYTE      CMP0MD
      000000E0H.4 SFRSYM    DATA     BIT       ACC_ACC4
      000000B1H   SFRSYM    DATA     BYTE      LFO0CN
      000000ABH   SFRSYM    DATA     BYTE      CMP1MD
      000000D8H.0 SFRSYM    DATA     BIT       PCA0CN0_CCF0
      000000E0H.5 SFRSYM    DATA     BIT       ACC_ACC5
LX51 LINKER/LOCATER V4.66.97.0                                                        08/09/2020  22:39:19  PAGE 13


      000000D8H.1 SFRSYM    DATA     BIT       PCA0CN0_CCF1
      000000E0H.6 SFRSYM    DATA     BIT       ACC_ACC6
      000000CCH   SFRSYM    DATA     WORD      TMR2
      000000D8H.2 SFRSYM    DATA     BIT       PCA0CN0_CCF2
      000000E0H.7 SFRSYM    DATA     BIT       ACC_ACC7
      00000094H   SFRSYM    DATA     WORD      TMR3
      000000C0H.3 SFRSYM    DATA     BIT       SMB0CN0_ACKRQ
      000000FFH   SFRSYM    DATA     BYTE      VDM0CN
      000000F1H   SFRSYM    DATA     BYTE      P0MDIN
      00000098H.4 SFRSYM    DATA     BIT       SCON0_REN
      000000ACH   SFRSYM    DATA     BYTE      SMB0TC
      000000F2H   SFRSYM    DATA     BYTE      P1MDIN
      000000C0H.4 SFRSYM    DATA     BIT       SMB0CN0_STO
      000000FEH   SFRSYM    DATA     BYTE      P0MASK
      000000EEH   SFRSYM    DATA     BYTE      P1MASK
      000000D0H.3 SFRSYM    DATA     BIT       PSW_RS0
      000000D8H.7 SFRSYM    DATA     BIT       PCA0CN0_CF
      0000009EH   SFRSYM    DATA     BYTE      PCA0CENT
      000000F8H.4 SFRSYM    DATA     BIT       SPI0CN0_RXOVRN
      000000D0H.4 SFRSYM    DATA     BIT       PSW_RS1
      000000E8H.7 SFRSYM    DATA     BIT       ADC0CN0_ADEN
      00000089H   SFRSYM    DATA     BYTE      TMOD
      00000088H   SFRSYM    DATA     BYTE      TCON
      000000CFH   SFRSYM    DATA     BYTE      CRC0FLIP
      000000D0H.0 SFRSYM    DATA     BIT       PSW_PARITY
      000000A8H.4 SFRSYM    DATA     BIT       IE_ES0
      0000009FH   SFRSYM    DATA     BYTE      CMP0MX
      000000A8H.1 SFRSYM    DATA     BIT       IE_ET0
      000000AAH   SFRSYM    DATA     BYTE      CMP1MX
      000000A8H.3 SFRSYM    DATA     BIT       IE_ET1
      000000D4H   SFRSYM    DATA     BYTE      P0SKIP
      000000A8H.5 SFRSYM    DATA     BIT       IE_ET2
      000000D5H   SFRSYM    DATA     BYTE      P1SKIP
      000000E8H   SFRSYM    DATA     BYTE      ADC0CN0
      000000A8H.0 SFRSYM    DATA     BIT       IE_EX0
      000000B2H   SFRSYM    DATA     BYTE      ADC0CN1
      000000D8H.6 SFRSYM    DATA     BIT       PCA0CN0_CR
      000000A8H.2 SFRSYM    DATA     BIT       IE_EX1
      00000098H.7 SFRSYM    DATA     BIT       SCON0_SMODE
      000000B5H   SFRSYM    DATA     BYTE      DEVICEID
      000000A9H   SFRSYM    DATA     BYTE      CLKSEL
      000000F8H.0 SFRSYM    DATA     BIT       SPI0CN0_SPIEN
      000000F0H   SFRSYM    DATA     BYTE      B
      000000BEH   SFRSYM    DATA     BYTE      ADC0H
      000000D2H   SFRSYM    DATA     BYTE      CRC0AUTO
      000000E8H.6 SFRSYM    DATA     BIT       ADC0CN0_ADBMEN
      000000CAH   SFRSYM    DATA     WORD      TMR2RL
      000000BDH   SFRSYM    DATA     BYTE      ADC0L
      00000092H   SFRSYM    DATA     WORD      TMR3RL
      000000D8H   SFRSYM    DATA     BYTE      PCA0CN0
      000000E0H   SFRSYM    DATA     BYTE      ACC
      000000FBH   SFRSYM    DATA     WORD      PCA0CP0
      000000E9H   SFRSYM    DATA     WORD      PCA0CP1
      000000EBH   SFRSYM    DATA     WORD      PCA0CP2
      000000CEH   SFRSYM    DATA     BYTE      CRC0CN0
      0000008CH   SFRSYM    DATA     BYTE      TH0
      000000B8H.4 SFRSYM    DATA     BIT       IP_PS0
      0000008DH   SFRSYM    DATA     BYTE      TH1
      000000FAH   SFRSYM    DATA     BYTE      PCA0H
      000000B8H.1 SFRSYM    DATA     BIT       IP_PT0
      000000B8H.3 SFRSYM    DATA     BIT       IP_PT1
      000000C0H.2 SFRSYM    DATA     BIT       SMB0CN0_ARBLOST
LX51 LINKER/LOCATER V4.66.97.0                                                        08/09/2020  22:39:19  PAGE 14


      000000B8H.5 SFRSYM    DATA     BIT       IP_PT2
      0000008AH   SFRSYM    DATA     BYTE      TL0
      000000F8H.1 SFRSYM    DATA     BIT       SPI0CN0_TXBMT
      000000D0H.5 SFRSYM    DATA     BIT       PSW_F0
      000000A8H.6 SFRSYM    DATA     BIT       IE_ESPI0
      0000008BH   SFRSYM    DATA     BYTE      TL1
      000000F9H   SFRSYM    DATA     BYTE      PCA0L
      000000C0H.0 SFRSYM    DATA     BIT       SMB0CN0_SI
      000000D0H.1 SFRSYM    DATA     BIT       PSW_F1
      00000080H.0 SFRSYM    DATA     BIT       P0_B0
      000000B8H.0 SFRSYM    DATA     BIT       IP_PX0
      00000090H.0 SFRSYM    DATA     BIT       P1_B0
      00000080H.1 SFRSYM    DATA     BIT       P0_B1
      000000B8H.2 SFRSYM    DATA     BIT       IP_PX1
      0000009BH   SFRSYM    DATA     BYTE      CMP0CN0
      00000088H.1 SFRSYM    DATA     BIT       TCON_IE0
      000000A0H.0 SFRSYM    DATA     BIT       P2_B0
      00000090H.1 SFRSYM    DATA     BIT       P1_B1
      00000080H.2 SFRSYM    DATA     BIT       P0_B2
      000000BFH   SFRSYM    DATA     BYTE      CMP1CN0
      00000088H.3 SFRSYM    DATA     BIT       TCON_IE1
      000000A0H.1 SFRSYM    DATA     BIT       P2_B1
      00000090H.2 SFRSYM    DATA     BIT       P1_B2
      00000080H.3 SFRSYM    DATA     BIT       P0_B3
      000000C0H   SFRSYM    DATA     BYTE      SMB0CN0
      00000090H.3 SFRSYM    DATA     BIT       P1_B3
      00000080H.4 SFRSYM    DATA     BIT       P0_B4
      00000090H.4 SFRSYM    DATA     BIT       P1_B4
      00000080H.5 SFRSYM    DATA     BIT       P0_B5
      00000090H.5 SFRSYM    DATA     BIT       P1_B5
      00000080H.6 SFRSYM    DATA     BIT       P0_B6
      00000090H.6 SFRSYM    DATA     BIT       P1_B6
      00000080H.7 SFRSYM    DATA     BIT       P0_B7
      00000090H.7 SFRSYM    DATA     BIT       P1_B7
      00000083H   SFRSYM    DATA     BYTE      DPH
      000000C4H   SFRSYM    DATA     BYTE      ADC0GTH
      000000C8H.7 SFRSYM    DATA     BIT       TMR2CN0_TF2H
      000000C8H.3 SFRSYM    DATA     BIT       TMR2CN0_T2SPLIT
      000000D0H.6 SFRSYM    DATA     BIT       PSW_AC
      000000F8H   SFRSYM    DATA     BYTE      SPI0CN0
      000000C7H   SFRSYM    DATA     BYTE      HFO0CAL
      00000088H.5 SFRSYM    DATA     BIT       TCON_TF0
      00000098H.0 SFRSYM    DATA     BIT       SCON0_RI
      00000082H   SFRSYM    DATA     BYTE      DPL
      00000088H.7 SFRSYM    DATA     BIT       TCON_TF1
      00000099H   SFRSYM    DATA     BYTE      SBUF0
      00000087H   SFRSYM    DATA     BYTE      PCON0
      000000C3H   SFRSYM    DATA     BYTE      ADC0GTL
      000000C8H.6 SFRSYM    DATA     BIT       TMR2CN0_TF2L
      00000098H.1 SFRSYM    DATA     BIT       SCON0_TI
      000000E8H.0 SFRSYM    DATA     BIT       ADC0CN0_ADCM0
      000000C6H   SFRSYM    DATA     BYTE      ADC0LTH
      00000088H.0 SFRSYM    DATA     BIT       TCON_IT0
      000000E8H.1 SFRSYM    DATA     BIT       ADC0CN0_ADCM1
      000000EFH   SFRSYM    DATA     BYTE      RSTSRC
      000000FDH   SFRSYM    DATA     BYTE      P0MAT
      000000DEH   SFRSYM    DATA     BYTE      CRC0DAT
      00000088H.2 SFRSYM    DATA     BIT       TCON_IT1
      000000E8H.2 SFRSYM    DATA     BIT       ADC0CN0_ADCM2
      00000098H   SFRSYM    DATA     BYTE      SCON0
      000000F6H   SFRSYM    DATA     BYTE      PRTDRV
      000000EDH   SFRSYM    DATA     BYTE      P1MAT
LX51 LINKER/LOCATER V4.66.97.0                                                        08/09/2020  22:39:19  PAGE 15


      000000E8H.3 SFRSYM    DATA     BIT       ADC0CN0_ADWINT
      000000E8H.4 SFRSYM    DATA     BIT       ADC0CN0_ADBUSY
      000000D6H   SFRSYM    DATA     BYTE      SMB0ADM
      000000C5H   SFRSYM    DATA     BYTE      ADC0LTL
      000000F8H.5 SFRSYM    DATA     BIT       SPI0CN0_MODF
      000000B8H.6 SFRSYM    DATA     BIT       IP_PSPI0
      0000009CH   SFRSYM    DATA     BYTE      PCA0CLR
      000000C8H   SFRSYM    DATA     BYTE      TMR2CN0
      00000091H   SFRSYM    DATA     BYTE      TMR3CN0
      000000D7H   SFRSYM    DATA     BYTE      SMB0ADR
      00000088H.4 SFRSYM    DATA     BIT       TCON_TR0
      000000C8H.4 SFRSYM    DATA     BIT       TMR2CN0_TF2CEN
      00000088H.6 SFRSYM    DATA     BIT       TCON_TR1
      000000C2H   SFRSYM    DATA     BYTE      SMB0DAT
      000000CDH   SFRSYM    DATA     BYTE      TMR2H
      000000A1H   SFRSYM    DATA     BYTE      SPI0CFG
      00000095H   SFRSYM    DATA     BYTE      TMR3H
      000000D3H   SFRSYM    DATA     BYTE      CRC0CNT
      00000096H   SFRSYM    DATA     BYTE      PCA0POL
      000000CCH   SFRSYM    DATA     BYTE      TMR2L
      000000F8H.7 SFRSYM    DATA     BIT       SPI0CN0_SPIF
      00000094H   SFRSYM    DATA     BYTE      TMR3L
      000000DFH   SFRSYM    DATA     BYTE      ADC0PWR
      000000A8H.7 SFRSYM    DATA     BIT       IE_EA
      000000C8H.5 SFRSYM    DATA     BIT       TMR2CN0_TF2LEN
      000000F8H.6 SFRSYM    DATA     BIT       SPI0CN0_WCOL
      000000F8H.2 SFRSYM    DATA     BIT       SPI0CN0_NSSMD0
      000000D0H.7 SFRSYM    DATA     BIT       PSW_CY
      000000A3H   SFRSYM    DATA     BYTE      SPI0DAT
      000000F8H.3 SFRSYM    DATA     BIT       SPI0CN0_NSSMD1
      000000BDH   SFRSYM    DATA     WORD      ADC0
      000000D0H   SFRSYM    DATA     BYTE      PSW
      000000F7H   SFRSYM    DATA     BYTE      PCA0PWM
      000000B6H   SFRSYM    DATA     BYTE      REVID
      000000B7H   SFRSYM    DATA     BYTE      FLKEY
      000000B3H   SFRSYM    DATA     BYTE      ADC0AC
      00000008H   SYMBOL    DATA     BYTE      TX_CURRENT_INDEX
      00000009H   SYMBOL    DATA     BYTE      RX_BYTES_READ
      00000021H.1 SYMBOL    BIT      BIT       RX_BUFFER_OVERFLOW
      0000000AH   SYMBOL    DATA     BYTE      TX_BYTES_SENT
      00000021H.2 SYMBOL    BIT      BIT       TX_TRANSMITTING
      00000021H.3 SYMBOL    BIT      BIT       UART_INITIATED
      0000000BH   SYMBOL    DATA     BYTE      RX_BYTES_RECEIVED
      01001BD7H   SYMBOL    CONST    ---       _?ix1000
      0000000CH   SYMBOL    DATA     BYTE      UART_DATA_LENGTH
      02000050H   SYMBOL    XDATA    ---       UART_TX_BUFFER

      010015F0H   BLOCK     CODE     ---       LVL=0
      0000002EH   SYMBOL    DATA     DWORD     baudrate
      010015F8H   BLOCK     CODE     NEAR LAB  LVL=1
      020000C1H   SYMBOL    XDATA    BYTE      timer1_reload_value
      020000C2H   SYMBOL    XDATA    BYTE      prescaler
      ---         BLOCKEND  ---      ---       LVL=1
      010015F0H   LINE      CODE     ---       #72
      010015F8H   LINE      CODE     ---       #80
      010015FDH   LINE      CODE     ---       #82
      01001600H   LINE      CODE     ---       #84
      01001606H   LINE      CODE     ---       #96
      0100161AH   LINE      CODE     ---       #97
      0100162BH   LINE      CODE     ---       #98
      0100162EH   LINE      CODE     ---       #99
      01001630H   LINE      CODE     ---       #100
LX51 LINKER/LOCATER V4.66.97.0                                                        08/09/2020  22:39:19  PAGE 16


      01001633H   LINE      CODE     ---       #101
      01001633H   LINE      CODE     ---       #102
      01001633H   LINE      CODE     ---       #123
      01001662H   LINE      CODE     ---       #129
      01001665H   LINE      CODE     ---       #132
      01001668H   LINE      CODE     ---       #135
      0100166BH   LINE      CODE     ---       #136
      0100166EH   LINE      CODE     ---       #139
      01001671H   LINE      CODE     ---       #142
      01001674H   LINE      CODE     ---       #148
      01001677H   LINE      CODE     ---       #151
      0100167AH   LINE      CODE     ---       #154
      01001683H   LINE      CODE     ---       #155
      01001686H   LINE      CODE     ---       #156
      0100168EH   LINE      CODE     ---       #157
      01001691H   LINE      CODE     ---       #158
      01001699H   LINE      CODE     ---       #159
      0100169CH   LINE      CODE     ---       #160
      0100169CH   LINE      CODE     ---       #163
      0100169FH   LINE      CODE     ---       #166
      010016A6H   LINE      CODE     ---       #167
      010016A8H   LINE      CODE     ---       #170
      010016ABH   LINE      CODE     ---       #176
      010016AEH   LINE      CODE     ---       #179
      010016B1H   LINE      CODE     ---       #189
      010016B3H   LINE      CODE     ---       #190
      010016B5H   LINE      CODE     ---       #192
      010016B7H   LINE      CODE     ---       #194
      ---         BLOCKEND  ---      ---       LVL=0

      010017EAH   BLOCK     CODE     VOID      LVL=0
      ---         BLOCKEND  ---      ---       LVL=0

      01001804H   BLOCK     CODE     ---       LVL=0
      0000002EH   SYMBOL    DATA     ---       s
      00000006H   SYMBOL    DATA     WORD      timeout
      00000005H   SYMBOL    DATA     BYTE      i
      0100180AH   BLOCK     CODE     NEAR LAB  LVL=1
      00000006H   SYMBOL    DATA     WORD      timeout
      00000005H   SYMBOL    DATA     BYTE      i
      ---         BLOCKEND  ---      ---       LVL=1
      01001804H   LINE      CODE     ---       #207
      0100180AH   LINE      CODE     ---       #208
      0100180DH   LINE      CODE     ---       #209
      0100180EH   LINE      CODE     ---       #214
      01001811H   LINE      CODE     ---       #216
      01001816H   LINE      CODE     ---       #218
      01001819H   LINE      CODE     ---       #221
      0100181BH   LINE      CODE     ---       #222
      01001820H   LINE      CODE     ---       #223
      01001829H   LINE      CODE     ---       #224
      01001829H   LINE      CODE     ---       #225
      01001829H   LINE      CODE     ---       #226
      01001829H   LINE      CODE     ---       #227
      01001829H   LINE      CODE     ---       #228
      01001829H   LINE      CODE     ---       #229
      01001829H   LINE      CODE     ---       #232
      0100183DH   LINE      CODE     ---       #235
      01001849H   LINE      CODE     ---       #237
      0100184BH   LINE      CODE     ---       #240
      0100184DH   LINE      CODE     ---       #243
      01001850H   LINE      CODE     ---       #244
LX51 LINKER/LOCATER V4.66.97.0                                                        08/09/2020  22:39:19  PAGE 17


      01001850H   LINE      CODE     ---       #245
      01001850H   LINE      CODE     ---       #247
      01001867H   LINE      CODE     ---       #249
      01001869H   LINE      CODE     ---       #250
      01001874H   LINE      CODE     ---       #251
      01001875H   LINE      CODE     ---       #252
      01001877H   LINE      CODE     ---       #254
      0100187AH   LINE      CODE     ---       #257
      0100187CH   LINE      CODE     ---       #260
      0100187EH   LINE      CODE     ---       #261
      ---         BLOCKEND  ---      ---       LVL=0
      00000001H   SYMBOL    DATA     ---       s
      00000005H   SYMBOL    DATA     BYTE      size

      01001B7FH   BLOCK     CODE     ---       LVL=0
      01001B7FH   BLOCK     CODE     NEAR LAB  LVL=1
      00000007H   SYMBOL    DATA     BYTE      received_byte
      ---         BLOCKEND  ---      ---       LVL=1
      01001B7FH   LINE      CODE     ---       #273
      01001B7FH   LINE      CODE     ---       #274
      01001B7FH   LINE      CODE     ---       #276
      01001B8DH   LINE      CODE     ---       #278
      01001B8FH   LINE      CODE     ---       #281
      01001B8FH   LINE      CODE     ---       #282
      ---         BLOCKEND  ---      ---       LVL=0

      01001AC3H   BLOCK     CODE     ---       LVL=0
      00000020H.0 SYMBOL    BIT      BIT       timeout
      01001AC3H   BLOCK     CODE     NEAR LAB  LVL=1
      00000006H   SYMBOL    DATA     WORD      timer1_overflow_count
      ---         BLOCKEND  ---      ---       LVL=1
      01001AC3H   LINE      CODE     ---       #285
      01001AC3H   LINE      CODE     ---       #286
      01001AC6H   LINE      CODE     ---       #288
      01001AC8H   LINE      CODE     ---       #291
      01001AC8H   LINE      CODE     ---       #293
      01001AD2H   LINE      CODE     ---       #294
      01001ADEH   LINE      CODE     ---       #295
      01001AE0H   LINE      CODE     ---       #296
      01001AE3H   LINE      CODE     ---       #297
      01001AE3H   LINE      CODE     ---       #299
      01001AE5H   LINE      CODE     ---       #300
      01001AE5H   LINE      CODE     ---       #303
      01001AE8H   LINE      CODE     ---       #304
      01001AEAH   LINE      CODE     ---       #307
      01001AEDH   LINE      CODE     ---       #311
      01001AEFH   LINE      CODE     ---       #313
      01001AF4H   LINE      CODE     ---       #314
      01001AFAH   LINE      CODE     ---       #316
      01001AFBH   LINE      CODE     ---       #317
      ---         BLOCKEND  ---      ---       LVL=0

      01001989H   BLOCK     CODE     ---       LVL=0
      01001989H   LINE      CODE     ---       #322
      01001996H   LINE      CODE     ---       #324
      01001999H   LINE      CODE     ---       #325
      010019A0H   LINE      CODE     ---       #326
      010019AFH   LINE      CODE     ---       #327
      010019B1H   LINE      CODE     ---       #328
      010019B3H   LINE      CODE     ---       #329
      010019B6H   LINE      CODE     ---       #330
      010019B9H   LINE      CODE     ---       #331
LX51 LINKER/LOCATER V4.66.97.0                                                        08/09/2020  22:39:19  PAGE 18


      010019BBH   LINE      CODE     ---       #332
      010019BBH   LINE      CODE     ---       #335
      010019BDH   LINE      CODE     ---       #338
      010019C2H   LINE      CODE     ---       #339
      010019C4H   LINE      CODE     ---       #342
      010019D0H   LINE      CODE     ---       #343
      010019D3H   LINE      CODE     ---       #344
      010019D5H   LINE      CODE     ---       #345
      010019D5H   LINE      CODE     ---       #347
      010019E4H   LINE      CODE     ---       #348
      010019E6H   LINE      CODE     ---       #351
      010019E8H   LINE      CODE     ---       #352
      010019E8H   LINE      CODE     ---       #353
      ---         BLOCKEND  ---      ---       LVL=0

      01000022H   BLOCK     CODE     ---       LVL=0
      01000022H   LINE      CODE     ---       #37
      01000022H   LINE      CODE     ---       #40
      ---         BLOCKEND  ---      ---       LVL=0

      01000E70H   BLOCK     CODE     ---       LVL=0
      01000E70H   BLOCK     CODE     NEAR LAB  LVL=1
      00000022H   SYMBOL    DATA     BYTE      i
      00000001H   SYMBOL    DATA     ---       uuid_p
      00000023H   SYMBOL    DATA     DWORD     uuid
      00000027H   SYMBOL    DATA     ---       short_id
      0000002AH   SYMBOL    DATA     ---       buf
      0000002CH   SYMBOL    DATA     INT       lastEdgeMask
      02000078H   SYMBOL    XDATA    ---       uuid_bytes
      0200007BH   SYMBOL    XDATA    ---       bpos
      0200007EH   SYMBOL    XDATA    ---       uart_buf
      0200009CH   SYMBOL    XDATA    ---       uuid_str
      020000B4H   SYMBOL    XDATA    ---       pos
      020000B7H   SYMBOL    XDATA    ---       receivedData
      ---         BLOCKEND  ---      ---       LVL=1
      01000E70H   LINE      CODE     ---       #45
      01000E70H   LINE      CODE     ---       #47
      01000E73H   LINE      CODE     ---       #50
      01000E79H   LINE      CODE     ---       #52
      01000E7DH   LINE      CODE     ---       #54
      01000E8CH   LINE      CODE     ---       #58
      01000E99H   LINE      CODE     ---       #60
      01000EACH   LINE      CODE     ---       #62
      01000EB2H   LINE      CODE     ---       #63
      01000EBDH   LINE      CODE     ---       #66
      01000EC0H   LINE      CODE     ---       #68
      01000EC2H   LINE      CODE     ---       #69
      01000EC5H   LINE      CODE     ---       #71
      01000ED0H   LINE      CODE     ---       #72
      01000ED9H   LINE      CODE     ---       #75
      01000EF7H   LINE      CODE     ---       #76
      01000F07H   LINE      CODE     ---       #77
      01000F15H   LINE      CODE     ---       #78
      01000F1FH   LINE      CODE     ---       #79
      01000F2FH   LINE      CODE     ---       #80
      01000F39H   LINE      CODE     ---       #81
      01000F5DH   LINE      CODE     ---       #82
      01000F67H   LINE      CODE     ---       #83
      01000F77H   LINE      CODE     ---       #84
      01000F85H   LINE      CODE     ---       #85
      01000F8FH   LINE      CODE     ---       #86
      01000F9FH   LINE      CODE     ---       #87
LX51 LINKER/LOCATER V4.66.97.0                                                        08/09/2020  22:39:19  PAGE 19


      01000FA9H   LINE      CODE     ---       #88
      01000FCDH   LINE      CODE     ---       #89
      01000FD7H   LINE      CODE     ---       #90
      01000FE7H   LINE      CODE     ---       #91
      01000FF5H   LINE      CODE     ---       #92
      01000FFFH   LINE      CODE     ---       #93
      0100100FH   LINE      CODE     ---       #94
      01001019H   LINE      CODE     ---       #95
      0100103DH   LINE      CODE     ---       #96
      01001047H   LINE      CODE     ---       #97
      01001057H   LINE      CODE     ---       #98
      0100106AH   LINE      CODE     ---       #99
      01001074H   LINE      CODE     ---       #100
      01001084H   LINE      CODE     ---       #101
      0100108EH   LINE      CODE     ---       #102
      010010B2H   LINE      CODE     ---       #105
      010010B4H   LINE      CODE     ---       #106
      010010B6H   LINE      CODE     ---       #107
      010010B8H   LINE      CODE     ---       #109
      010010B8H   LINE      CODE     ---       #110
      010010BFH   LINE      CODE     ---       #111
      010010CFH   LINE      CODE     ---       #112
      010010E2H   LINE      CODE     ---       #115
      010010EAH   LINE      CODE     ---       #117
      0100110EH   LINE      CODE     ---       #118
      0100111AH   LINE      CODE     ---       #119
      0100111AH   LINE      CODE     ---       #120
      0100111AH   LINE      CODE     ---       #121
      0100111DH   LINE      CODE     ---       #122
      0100111DH   LINE      CODE     ---       #123
      0100111DH   LINE      CODE     ---       #126
      01001125H   LINE      CODE     ---       #127
      01001134H   LINE      CODE     ---       #128
      0100113DH   LINE      CODE     ---       #129
      01001140H   LINE      CODE     ---       #131
      01001142H   LINE      CODE     ---       #132
      01001144H   LINE      CODE     ---       #133
      01001146H   LINE      CODE     ---       #134
      01001146H   LINE      CODE     ---       #135
      0100114EH   LINE      CODE     ---       #137
      01001150H   LINE      CODE     ---       #138
      01001152H   LINE      CODE     ---       #139
      01001154H   LINE      CODE     ---       #140
      01001154H   LINE      CODE     ---       #141
      01001158H   LINE      CODE     ---       #143
      0100115AH   LINE      CODE     ---       #144
      0100115CH   LINE      CODE     ---       #145
      0100115EH   LINE      CODE     ---       #146
      0100115EH   LINE      CODE     ---       #147
      0100115EH   LINE      CODE     ---       #148
      0100115EH   LINE      CODE     ---       #149
      01001161H   LINE      CODE     ---       #150
      01001161H   LINE      CODE     ---       #151
      01001161H   LINE      CODE     ---       #154
      01001169H   LINE      CODE     ---       #155
      0100116FH   LINE      CODE     ---       #157
      01001178H   LINE      CODE     ---       #158
      01001183H   LINE      CODE     ---       #159
      01001192H   LINE      CODE     ---       #160
      010011A1H   LINE      CODE     ---       #161
      010011B0H   LINE      CODE     ---       #162
      010011BDH   LINE      CODE     ---       #163
LX51 LINKER/LOCATER V4.66.97.0                                                        08/09/2020  22:39:19  PAGE 20


      010011BDH   LINE      CODE     ---       #164
      010011C0H   LINE      CODE     ---       #165
      010011C0H   LINE      CODE     ---       #166
      010011C0H   LINE      CODE     ---       #167
      010011C0H   LINE      CODE     ---       #170
      010011C8H   LINE      CODE     ---       #171
      010011D7H   LINE      CODE     ---       #172
      010011D7H   LINE      CODE     ---       #173
      010011D7H   LINE      CODE     ---       #174
      010011DAH   LINE      CODE     ---       #175
      010011E8H   LINE      CODE     ---       #176
      010011E8H   LINE      CODE     ---       #177
      010011E8H   LINE      CODE     ---       #180
      010011F0H   LINE      CODE     ---       #181
      010011F6H   LINE      CODE     ---       #182
      010011FEH   LINE      CODE     ---       #183
      010011FEH   LINE      CODE     ---       #184
      01001201H   LINE      CODE     ---       #185
      01001201H   LINE      CODE     ---       #186
      01001201H   LINE      CODE     ---       #187
      01001204H   LINE      CODE     ---       #188
      01001207H   LINE      CODE     ---       #189
      01001209H   LINE      CODE     ---       #190
      01001209H   LINE      CODE     ---       #191
      01001209H   LINE      CODE     ---       #192
      ---         BLOCKEND  ---      ---       LVL=0

      ---         MODULE    ---      ---       INITDEVICE
      01001BCFH   PUBLIC    CODE     ---       UART_0_enter_DefaultMode_from_RESET
      01001BCBH   PUBLIC    CODE     ---       INTERRUPT_0_enter_DefaultMode_from_RESET
      01001BB2H   PUBLIC    CODE     ---       TIMER_SETUP_0_enter_DefaultMode_from_RESET
      01001B57H   PUBLIC    CODE     ---       TIMER16_2_enter_DefaultMode_from_RESET
      01001BC7H   PUBLIC    CODE     ---       CLOCK_0_enter_DefaultMode_from_RESET
      010019F3H   PUBLIC    CODE     ---       WDT_0_enter_DefaultMode_from_RESET
      01001BBCH   PUBLIC    CODE     ---       PBCFG_0_enter_DefaultMode_from_RESET
      01001BC3H   PUBLIC    CODE     ---       PORTS_1_enter_DefaultMode_from_RESET
      0100001EH   PUBLIC    CODE     ---       PORTS_0_enter_DefaultMode_from_RESET
      01000003H   PUBLIC    CODE     ---       enter_DefaultMode_from_RESET
      000000A2H   SFRSYM    DATA     BYTE      SPI0CKR
      00000080H   SFRSYM    DATA     BYTE      P0
      000000D0H.2 SFRSYM    DATA     BIT       PSW_OV
      00000090H   SFRSYM    DATA     BYTE      P1
      00000097H   SFRSYM    DATA     BYTE      WDTCN
      000000A0H   SFRSYM    DATA     BYTE      P2
      000000BCH   SFRSYM    DATA     BYTE      ADC0CF
      000000C8H.0 SFRSYM    DATA     BIT       TMR2CN0_T2XCLK
      000000C0H.7 SFRSYM    DATA     BIT       SMB0CN0_MASTER
      000000F9H   SFRSYM    DATA     WORD      PCA0
      000000E6H   SFRSYM    DATA     BYTE      EIE1
      000000C0H.1 SFRSYM    DATA     BIT       SMB0CN0_ACK
      0000008FH   SFRSYM    DATA     BYTE      PSCTL
      000000E4H   SFRSYM    DATA     BYTE      IT01CF
      000000C0H.6 SFRSYM    DATA     BIT       SMB0CN0_TXMODE
      000000ADH   SFRSYM    DATA     BYTE      DERIVID
      000000A4H   SFRSYM    DATA     BYTE      P0MDOUT
      000000A5H   SFRSYM    DATA     BYTE      P1MDOUT
      000000E8H.5 SFRSYM    DATA     BIT       ADC0CN0_ADINT
      000000CBH   SFRSYM    DATA     BYTE      TMR2RLH
      000000A6H   SFRSYM    DATA     BYTE      P2MDOUT
      000000A8H   SFRSYM    DATA     BYTE      IE
      00000093H   SFRSYM    DATA     BYTE      TMR3RLH
      000000F3H   SFRSYM    DATA     BYTE      EIP1
LX51 LINKER/LOCATER V4.66.97.0                                                        08/09/2020  22:39:19  PAGE 21


      00000098H.2 SFRSYM    DATA     BIT       SCON0_RB8
      000000CAH   SFRSYM    DATA     BYTE      TMR2RLL
      000000FCH   SFRSYM    DATA     BYTE      PCA0CPH0
      00000092H   SFRSYM    DATA     BYTE      TMR3RLL
      000000EAH   SFRSYM    DATA     BYTE      PCA0CPH1
      00000098H.3 SFRSYM    DATA     BIT       SCON0_TB8
      000000F0H.0 SFRSYM    DATA     BIT       B_B0
      00000082H   SFRSYM    DATA     WORD      DP
      000000ECH   SFRSYM    DATA     BYTE      PCA0CPH2
      000000F0H.1 SFRSYM    DATA     BIT       B_B1
      000000C3H   SFRSYM    DATA     WORD      ADC0GT
      000000F0H.2 SFRSYM    DATA     BIT       B_B2
      000000FBH   SFRSYM    DATA     BYTE      PCA0CPL0
      000000F0H.3 SFRSYM    DATA     BIT       B_B3
      000000D9H   SFRSYM    DATA     BYTE      PCA0MD
      000000DAH   SFRSYM    DATA     BYTE      PCA0CPM0
      000000E9H   SFRSYM    DATA     BYTE      PCA0CPL1
      000000F0H.4 SFRSYM    DATA     BIT       B_B4
      000000DBH   SFRSYM    DATA     BYTE      PCA0CPM1
      000000EBH   SFRSYM    DATA     BYTE      PCA0CPL2
      000000F0H.5 SFRSYM    DATA     BIT       B_B5
      000000DCH   SFRSYM    DATA     BYTE      PCA0CPM2
      000000B8H   SFRSYM    DATA     BYTE      IP
      000000B9H   SFRSYM    DATA     BYTE      ADC0TK
      000000F0H.6 SFRSYM    DATA     BIT       B_B6
      000000C5H   SFRSYM    DATA     WORD      ADC0LT
      00000098H.5 SFRSYM    DATA     BIT       SCON0_MCE
      000000F0H.7 SFRSYM    DATA     BIT       B_B7
      000000E1H   SFRSYM    DATA     BYTE      XBR0
      000000C1H   SFRSYM    DATA     BYTE      SMB0CF
      000000E2H   SFRSYM    DATA     BYTE      XBR1
      000000C0H.5 SFRSYM    DATA     BIT       SMB0CN0_STA
      000000E3H   SFRSYM    DATA     BYTE      XBR2
      000000BBH   SFRSYM    DATA     BYTE      ADC0MX
      000000E0H.0 SFRSYM    DATA     BIT       ACC_ACC0
      000000D1H   SFRSYM    DATA     BYTE      REF0CN
      0000008EH   SFRSYM    DATA     BYTE      CKCON0
      000000E0H.1 SFRSYM    DATA     BIT       ACC_ACC1
      000000C9H   SFRSYM    DATA     BYTE      REG0CN
      000000DDH   SFRSYM    DATA     BYTE      CRC0IN
      000000C8H.2 SFRSYM    DATA     BIT       TMR2CN0_TR2
      000000E0H.2 SFRSYM    DATA     BIT       ACC_ACC2
      000000E0H.3 SFRSYM    DATA     BIT       ACC_ACC3
      00000081H   SFRSYM    DATA     BYTE      SP
      0000009DH   SFRSYM    DATA     BYTE      CMP0MD
      000000E0H.4 SFRSYM    DATA     BIT       ACC_ACC4
      000000B1H   SFRSYM    DATA     BYTE      LFO0CN
      000000ABH   SFRSYM    DATA     BYTE      CMP1MD
      000000D8H.0 SFRSYM    DATA     BIT       PCA0CN0_CCF0
      000000E0H.5 SFRSYM    DATA     BIT       ACC_ACC5
      000000D8H.1 SFRSYM    DATA     BIT       PCA0CN0_CCF1
      000000E0H.6 SFRSYM    DATA     BIT       ACC_ACC6
      000000CCH   SFRSYM    DATA     WORD      TMR2
      000000D8H.2 SFRSYM    DATA     BIT       PCA0CN0_CCF2
      000000E0H.7 SFRSYM    DATA     BIT       ACC_ACC7
      00000094H   SFRSYM    DATA     WORD      TMR3
      000000C0H.3 SFRSYM    DATA     BIT       SMB0CN0_ACKRQ
      000000FFH   SFRSYM    DATA     BYTE      VDM0CN
      000000F1H   SFRSYM    DATA     BYTE      P0MDIN
      00000098H.4 SFRSYM    DATA     BIT       SCON0_REN
      000000ACH   SFRSYM    DATA     BYTE      SMB0TC
      000000F2H   SFRSYM    DATA     BYTE      P1MDIN
LX51 LINKER/LOCATER V4.66.97.0                                                        08/09/2020  22:39:19  PAGE 22


      000000C0H.4 SFRSYM    DATA     BIT       SMB0CN0_STO
      000000FEH   SFRSYM    DATA     BYTE      P0MASK
      000000EEH   SFRSYM    DATA     BYTE      P1MASK
      000000D0H.3 SFRSYM    DATA     BIT       PSW_RS0
      000000D8H.7 SFRSYM    DATA     BIT       PCA0CN0_CF
      0000009EH   SFRSYM    DATA     BYTE      PCA0CENT
      000000F8H.4 SFRSYM    DATA     BIT       SPI0CN0_RXOVRN
      000000D0H.4 SFRSYM    DATA     BIT       PSW_RS1
      000000E8H.7 SFRSYM    DATA     BIT       ADC0CN0_ADEN
      00000089H   SFRSYM    DATA     BYTE      TMOD
      00000088H   SFRSYM    DATA     BYTE      TCON
      000000CFH   SFRSYM    DATA     BYTE      CRC0FLIP
      000000D0H.0 SFRSYM    DATA     BIT       PSW_PARITY
      000000A8H.4 SFRSYM    DATA     BIT       IE_ES0
      0000009FH   SFRSYM    DATA     BYTE      CMP0MX
      000000A8H.1 SFRSYM    DATA     BIT       IE_ET0
      000000AAH   SFRSYM    DATA     BYTE      CMP1MX
      000000A8H.3 SFRSYM    DATA     BIT       IE_ET1
      000000D4H   SFRSYM    DATA     BYTE      P0SKIP
      000000A8H.5 SFRSYM    DATA     BIT       IE_ET2
      000000D5H   SFRSYM    DATA     BYTE      P1SKIP
      000000E8H   SFRSYM    DATA     BYTE      ADC0CN0
      000000A8H.0 SFRSYM    DATA     BIT       IE_EX0
      000000B2H   SFRSYM    DATA     BYTE      ADC0CN1
      000000D8H.6 SFRSYM    DATA     BIT       PCA0CN0_CR
      000000A8H.2 SFRSYM    DATA     BIT       IE_EX1
      00000098H.7 SFRSYM    DATA     BIT       SCON0_SMODE
      000000B5H   SFRSYM    DATA     BYTE      DEVICEID
      000000A9H   SFRSYM    DATA     BYTE      CLKSEL
      000000F8H.0 SFRSYM    DATA     BIT       SPI0CN0_SPIEN
      000000F0H   SFRSYM    DATA     BYTE      B
      000000BEH   SFRSYM    DATA     BYTE      ADC0H
      000000D2H   SFRSYM    DATA     BYTE      CRC0AUTO
      000000E8H.6 SFRSYM    DATA     BIT       ADC0CN0_ADBMEN
      000000CAH   SFRSYM    DATA     WORD      TMR2RL
      000000BDH   SFRSYM    DATA     BYTE      ADC0L
      00000092H   SFRSYM    DATA     WORD      TMR3RL
      000000D8H   SFRSYM    DATA     BYTE      PCA0CN0
      000000E0H   SFRSYM    DATA     BYTE      ACC
      000000FBH   SFRSYM    DATA     WORD      PCA0CP0
      000000E9H   SFRSYM    DATA     WORD      PCA0CP1
      000000EBH   SFRSYM    DATA     WORD      PCA0CP2
      000000CEH   SFRSYM    DATA     BYTE      CRC0CN0
      0000008CH   SFRSYM    DATA     BYTE      TH0
      000000B8H.4 SFRSYM    DATA     BIT       IP_PS0
      0000008DH   SFRSYM    DATA     BYTE      TH1
      000000FAH   SFRSYM    DATA     BYTE      PCA0H
      000000B8H.1 SFRSYM    DATA     BIT       IP_PT0
      000000B8H.3 SFRSYM    DATA     BIT       IP_PT1
      000000C0H.2 SFRSYM    DATA     BIT       SMB0CN0_ARBLOST
      000000B8H.5 SFRSYM    DATA     BIT       IP_PT2
      0000008AH   SFRSYM    DATA     BYTE      TL0
      000000F8H.1 SFRSYM    DATA     BIT       SPI0CN0_TXBMT
      000000D0H.5 SFRSYM    DATA     BIT       PSW_F0
      000000A8H.6 SFRSYM    DATA     BIT       IE_ESPI0
      0000008BH   SFRSYM    DATA     BYTE      TL1
      000000F9H   SFRSYM    DATA     BYTE      PCA0L
      000000C0H.0 SFRSYM    DATA     BIT       SMB0CN0_SI
      000000D0H.1 SFRSYM    DATA     BIT       PSW_F1
      00000080H.0 SFRSYM    DATA     BIT       P0_B0
      000000B8H.0 SFRSYM    DATA     BIT       IP_PX0
      00000090H.0 SFRSYM    DATA     BIT       P1_B0
LX51 LINKER/LOCATER V4.66.97.0                                                        08/09/2020  22:39:19  PAGE 23


      00000080H.1 SFRSYM    DATA     BIT       P0_B1
      000000B8H.2 SFRSYM    DATA     BIT       IP_PX1
      0000009BH   SFRSYM    DATA     BYTE      CMP0CN0
      00000088H.1 SFRSYM    DATA     BIT       TCON_IE0
      000000A0H.0 SFRSYM    DATA     BIT       P2_B0
      00000090H.1 SFRSYM    DATA     BIT       P1_B1
      00000080H.2 SFRSYM    DATA     BIT       P0_B2
      000000BFH   SFRSYM    DATA     BYTE      CMP1CN0
      00000088H.3 SFRSYM    DATA     BIT       TCON_IE1
      000000A0H.1 SFRSYM    DATA     BIT       P2_B1
      00000090H.2 SFRSYM    DATA     BIT       P1_B2
      00000080H.3 SFRSYM    DATA     BIT       P0_B3
      000000C0H   SFRSYM    DATA     BYTE      SMB0CN0
      00000090H.3 SFRSYM    DATA     BIT       P1_B3
      00000080H.4 SFRSYM    DATA     BIT       P0_B4
      00000090H.4 SFRSYM    DATA     BIT       P1_B4
      00000080H.5 SFRSYM    DATA     BIT       P0_B5
      00000090H.5 SFRSYM    DATA     BIT       P1_B5
      00000080H.6 SFRSYM    DATA     BIT       P0_B6
      00000090H.6 SFRSYM    DATA     BIT       P1_B6
      00000080H.7 SFRSYM    DATA     BIT       P0_B7
      00000090H.7 SFRSYM    DATA     BIT       P1_B7
      00000083H   SFRSYM    DATA     BYTE      DPH
      000000C4H   SFRSYM    DATA     BYTE      ADC0GTH
      000000C8H.7 SFRSYM    DATA     BIT       TMR2CN0_TF2H
      000000C8H.3 SFRSYM    DATA     BIT       TMR2CN0_T2SPLIT
      000000D0H.6 SFRSYM    DATA     BIT       PSW_AC
      000000F8H   SFRSYM    DATA     BYTE      SPI0CN0
      000000C7H   SFRSYM    DATA     BYTE      HFO0CAL
      00000088H.5 SFRSYM    DATA     BIT       TCON_TF0
      00000098H.0 SFRSYM    DATA     BIT       SCON0_RI
      00000082H   SFRSYM    DATA     BYTE      DPL
      00000088H.7 SFRSYM    DATA     BIT       TCON_TF1
      00000099H   SFRSYM    DATA     BYTE      SBUF0
      00000087H   SFRSYM    DATA     BYTE      PCON0
      000000C3H   SFRSYM    DATA     BYTE      ADC0GTL
      000000C8H.6 SFRSYM    DATA     BIT       TMR2CN0_TF2L
      00000098H.1 SFRSYM    DATA     BIT       SCON0_TI
      000000E8H.0 SFRSYM    DATA     BIT       ADC0CN0_ADCM0
      000000C6H   SFRSYM    DATA     BYTE      ADC0LTH
      00000088H.0 SFRSYM    DATA     BIT       TCON_IT0
      000000E8H.1 SFRSYM    DATA     BIT       ADC0CN0_ADCM1
      000000EFH   SFRSYM    DATA     BYTE      RSTSRC
      000000FDH   SFRSYM    DATA     BYTE      P0MAT
      000000DEH   SFRSYM    DATA     BYTE      CRC0DAT
      00000088H.2 SFRSYM    DATA     BIT       TCON_IT1
      000000E8H.2 SFRSYM    DATA     BIT       ADC0CN0_ADCM2
      00000098H   SFRSYM    DATA     BYTE      SCON0
      000000F6H   SFRSYM    DATA     BYTE      PRTDRV
      000000EDH   SFRSYM    DATA     BYTE      P1MAT
      000000E8H.3 SFRSYM    DATA     BIT       ADC0CN0_ADWINT
      000000E8H.4 SFRSYM    DATA     BIT       ADC0CN0_ADBUSY
      000000D6H   SFRSYM    DATA     BYTE      SMB0ADM
      000000C5H   SFRSYM    DATA     BYTE      ADC0LTL
      000000F8H.5 SFRSYM    DATA     BIT       SPI0CN0_MODF
      000000B8H.6 SFRSYM    DATA     BIT       IP_PSPI0
      0000009CH   SFRSYM    DATA     BYTE      PCA0CLR
      000000C8H   SFRSYM    DATA     BYTE      TMR2CN0
      00000091H   SFRSYM    DATA     BYTE      TMR3CN0
      000000D7H   SFRSYM    DATA     BYTE      SMB0ADR
      00000088H.4 SFRSYM    DATA     BIT       TCON_TR0
      000000C8H.4 SFRSYM    DATA     BIT       TMR2CN0_TF2CEN
LX51 LINKER/LOCATER V4.66.97.0                                                        08/09/2020  22:39:19  PAGE 24


      00000088H.6 SFRSYM    DATA     BIT       TCON_TR1
      000000C2H   SFRSYM    DATA     BYTE      SMB0DAT
      000000CDH   SFRSYM    DATA     BYTE      TMR2H
      000000A1H   SFRSYM    DATA     BYTE      SPI0CFG
      00000095H   SFRSYM    DATA     BYTE      TMR3H
      000000D3H   SFRSYM    DATA     BYTE      CRC0CNT
      00000096H   SFRSYM    DATA     BYTE      PCA0POL
      000000CCH   SFRSYM    DATA     BYTE      TMR2L
      000000F8H.7 SFRSYM    DATA     BIT       SPI0CN0_SPIF
      00000094H   SFRSYM    DATA     BYTE      TMR3L
      000000DFH   SFRSYM    DATA     BYTE      ADC0PWR
      000000A8H.7 SFRSYM    DATA     BIT       IE_EA
      000000C8H.5 SFRSYM    DATA     BIT       TMR2CN0_TF2LEN
      000000F8H.6 SFRSYM    DATA     BIT       SPI0CN0_WCOL
      000000F8H.2 SFRSYM    DATA     BIT       SPI0CN0_NSSMD0
      000000D0H.7 SFRSYM    DATA     BIT       PSW_CY
      000000A3H   SFRSYM    DATA     BYTE      SPI0DAT
      000000F8H.3 SFRSYM    DATA     BIT       SPI0CN0_NSSMD1
      000000BDH   SFRSYM    DATA     WORD      ADC0
      000000D0H   SFRSYM    DATA     BYTE      PSW
      000000F7H   SFRSYM    DATA     BYTE      PCA0PWM
      000000B6H   SFRSYM    DATA     BYTE      REVID
      000000B7H   SFRSYM    DATA     BYTE      FLKEY
      000000B3H   SFRSYM    DATA     BYTE      ADC0AC

      01000003H   BLOCK     CODE     ---       LVL=0
      01000003H   LINE      CODE     ---       #22
      01000003H   LINE      CODE     ---       #24
      01000006H   LINE      CODE     ---       #25
      01000009H   LINE      CODE     ---       #26
      0100000CH   LINE      CODE     ---       #27
      0100000FH   LINE      CODE     ---       #28
      01000012H   LINE      CODE     ---       #29
      01000015H   LINE      CODE     ---       #30
      01000018H   LINE      CODE     ---       #31
      0100001BH   LINE      CODE     ---       #32
      ---         BLOCKEND  ---      ---       LVL=0

      0100001EH   BLOCK     CODE     ---       LVL=0
      0100001EH   LINE      CODE     ---       #37
      0100001EH   LINE      CODE     ---       #52
      01000021H   LINE      CODE     ---       #68
      ---         BLOCKEND  ---      ---       LVL=0

      01001BC3H   BLOCK     CODE     ---       LVL=0
      01001BC3H   LINE      CODE     ---       #70
      01001BC3H   LINE      CODE     ---       #84
      01001BC6H   LINE      CODE     ---       #100
      ---         BLOCKEND  ---      ---       LVL=0

      01001BBCH   BLOCK     CODE     ---       LVL=0
      01001BBCH   LINE      CODE     ---       #102
      01001BBCH   LINE      CODE     ---       #108
      01001BBFH   LINE      CODE     ---       #125
      01001BC2H   LINE      CODE     ---       #132
      ---         BLOCKEND  ---      ---       LVL=0

      010019F3H   BLOCK     CODE     ---       LVL=0
      010019F3H   BLOCK     CODE     NEAR LAB  LVL=1
      0000002EH   SYMBOL    DATA     DWORD     i
      00000020H.0 SYMBOL    BIT      BIT       ea
      ---         BLOCKEND  ---      ---       LVL=1
LX51 LINKER/LOCATER V4.66.97.0                                                        08/09/2020  22:39:19  PAGE 25


      010019F3H   LINE      CODE     ---       #134
      010019F3H   LINE      CODE     ---       #147
      010019F6H   LINE      CODE     ---       #150
      01001A13H   LINE      CODE     ---       #151
      01001A14H   LINE      CODE     ---       #152
      01001A2BH   LINE      CODE     ---       #155
      01001A2FH   LINE      CODE     ---       #156
      01001A31H   LINE      CODE     ---       #157
      01001A34H   LINE      CODE     ---       #158
      01001A37H   LINE      CODE     ---       #159
      01001A3BH   LINE      CODE     ---       #163
      ---         BLOCKEND  ---      ---       LVL=0

      01001BC7H   BLOCK     CODE     ---       LVL=0
      01001BC7H   LINE      CODE     ---       #165
      01001BC7H   LINE      CODE     ---       #171
      01001BCAH   LINE      CODE     ---       #174
      ---         BLOCKEND  ---      ---       LVL=0

      01001B57H   BLOCK     CODE     ---       LVL=0
      01001B57H   BLOCK     CODE     NEAR LAB  LVL=1
      00000007H   SYMBOL    DATA     BYTE      TMR2CN0_TR2_save
      ---         BLOCKEND  ---      ---       LVL=1
      01001B57H   LINE      CODE     ---       #176
      01001B57H   LINE      CODE     ---       #180
      01001B5BH   LINE      CODE     ---       #182
      01001B5EH   LINE      CODE     ---       #192
      01001B61H   LINE      CODE     ---       #199
      01001B64H   LINE      CODE     ---       #206
      01001B67H   LINE      CODE     ---       #213
      01001B6AH   LINE      CODE     ---       #221
      01001B6CH   LINE      CODE     ---       #224
      ---         BLOCKEND  ---      ---       LVL=0

      01001BB2H   BLOCK     CODE     ---       LVL=0
      01001BB2H   LINE      CODE     ---       #226
      01001BB2H   LINE      CODE     ---       #237
      01001BB5H   LINE      CODE     ---       #250
      01001BB8H   LINE      CODE     ---       #257
      01001BBBH   LINE      CODE     ---       #260
      ---         BLOCKEND  ---      ---       LVL=0

      01001BCBH   BLOCK     CODE     ---       LVL=0
      01001BCBH   LINE      CODE     ---       #262
      01001BCBH   LINE      CODE     ---       #280
      01001BCEH   LINE      CODE     ---       #286
      ---         BLOCKEND  ---      ---       LVL=0

      01001BCFH   BLOCK     CODE     ---       LVL=0
      01001BCFH   LINE      CODE     ---       #288
      01001BCFH   LINE      CODE     ---       #293
      01001BD2H   LINE      CODE     ---       #296
      ---         BLOCKEND  ---      ---       LVL=0

      ---         MODULE    ---      ---       INTERRUPTS

      ---         MODULE    ---      ---       ?C_STARTUP
      01000000H   PUBLIC    CODE     NEAR LAB  ?C_STARTUP
      000000E0H   SFRSYM    DATA     BYTE      ACC
      000000F0H   SFRSYM    DATA     BYTE      B
      00000083H   SFRSYM    DATA     BYTE      DPH
      00000082H   SFRSYM    DATA     BYTE      DPL
LX51 LINKER/LOCATER V4.66.97.0                                                        08/09/2020  22:39:19  PAGE 26


      000000A0H   SFRSYM    DATA     BYTE      PPAGE_SFR
      00000081H   SFRSYM    DATA     BYTE      SP
      00000000H   SYMBOL    NUMBER   ---       IBPSTACK
      00000100H   SYMBOL    NUMBER   ---       IBPSTACKTOP
      00000080H   SYMBOL    NUMBER   ---       IDATALEN
      01001885H   SYMBOL    CODE     NEAR LAB  IDATALOOP
      00000000H   SYMBOL    NUMBER   ---       PBPSTACK
      00000100H   SYMBOL    NUMBER   ---       PBPSTACKTOP
      00000000H   SYMBOL    NUMBER   ---       PDATALEN
      00000000H   SYMBOL    NUMBER   ---       PDATASTART
      00000000H   SYMBOL    NUMBER   ---       PPAGE
      00000000H   SYMBOL    NUMBER   ---       PPAGEENABLE
      0100187FH   SYMBOL    CODE     NEAR LAB  STARTUP1
      00000000H   SYMBOL    NUMBER   ---       XBPSTACK
      00010000H   SYMBOL    NUMBER   ---       XBPSTACKTOP
      00000000H   SYMBOL    NUMBER   ---       XDATALEN
      00000000H   SYMBOL    NUMBER   ---       XDATASTART

      01000000H   BLOCK     CODE     NEAR LAB  LVL=0
      01000000H   LINE      CODE     ---       #126
      ---         BLOCKEND  ---      ---       LVL=0

      0100187FH   BLOCK     CODE     NEAR LAB  LVL=0
      0100187FH   LINE      CODE     ---       #134
      01001882H   LINE      CODE     ---       #138
      01001884H   LINE      CODE     ---       #139
      01001885H   LINE      CODE     ---       #140
      01001886H   LINE      CODE     ---       #141
      01001888H   LINE      CODE     ---       #190
      0100188BH   LINE      CODE     ---       #201
      ---         BLOCKEND  ---      ---       LVL=0

      ---         MODULE    ---      ---       WS2812
      01001A80H   PUBLIC    CODE     ---       _LED_main
      0100191AH   PUBLIC    CODE     ---       _LED__SendByte_
      01001BA1H   PUBLIC    CODE     ---       LED_Latch
      01001B6DH   PUBLIC    CODE     ---       LED__SendOne_
      01001B90H   PUBLIC    CODE     ---       LED__SendZero_
      01001AFCH   PUBLIC    CODE     ---       _gamma
      000000A2H   SFRSYM    DATA     BYTE      SPI0CKR
      00000080H   SFRSYM    DATA     BYTE      P0
      000000D0H.2 SFRSYM    DATA     BIT       PSW_OV
      00000090H   SFRSYM    DATA     BYTE      P1
      00000097H   SFRSYM    DATA     BYTE      WDTCN
      000000A0H   SFRSYM    DATA     BYTE      P2
      000000BCH   SFRSYM    DATA     BYTE      ADC0CF
      000000C8H.0 SFRSYM    DATA     BIT       TMR2CN0_T2XCLK
      000000C0H.7 SFRSYM    DATA     BIT       SMB0CN0_MASTER
      000000F9H   SFRSYM    DATA     WORD      PCA0
      000000E6H   SFRSYM    DATA     BYTE      EIE1
      000000C0H.1 SFRSYM    DATA     BIT       SMB0CN0_ACK
      0000008FH   SFRSYM    DATA     BYTE      PSCTL
      000000E4H   SFRSYM    DATA     BYTE      IT01CF
      000000C0H.6 SFRSYM    DATA     BIT       SMB0CN0_TXMODE
      000000ADH   SFRSYM    DATA     BYTE      DERIVID
      000000A4H   SFRSYM    DATA     BYTE      P0MDOUT
      000000A5H   SFRSYM    DATA     BYTE      P1MDOUT
      000000E8H.5 SFRSYM    DATA     BIT       ADC0CN0_ADINT
      000000CBH   SFRSYM    DATA     BYTE      TMR2RLH
      000000A6H   SFRSYM    DATA     BYTE      P2MDOUT
      000000A8H   SFRSYM    DATA     BYTE      IE
      00000093H   SFRSYM    DATA     BYTE      TMR3RLH
LX51 LINKER/LOCATER V4.66.97.0                                                        08/09/2020  22:39:19  PAGE 27


      000000F3H   SFRSYM    DATA     BYTE      EIP1
      00000098H.2 SFRSYM    DATA     BIT       SCON0_RB8
      000000CAH   SFRSYM    DATA     BYTE      TMR2RLL
      000000FCH   SFRSYM    DATA     BYTE      PCA0CPH0
      00000092H   SFRSYM    DATA     BYTE      TMR3RLL
      000000EAH   SFRSYM    DATA     BYTE      PCA0CPH1
      00000098H.3 SFRSYM    DATA     BIT       SCON0_TB8
      000000F0H.0 SFRSYM    DATA     BIT       B_B0
      00000082H   SFRSYM    DATA     WORD      DP
      000000ECH   SFRSYM    DATA     BYTE      PCA0CPH2
      000000F0H.1 SFRSYM    DATA     BIT       B_B1
      000000C3H   SFRSYM    DATA     WORD      ADC0GT
      000000F0H.2 SFRSYM    DATA     BIT       B_B2
      000000FBH   SFRSYM    DATA     BYTE      PCA0CPL0
      000000F0H.3 SFRSYM    DATA     BIT       B_B3
      000000D9H   SFRSYM    DATA     BYTE      PCA0MD
      000000DAH   SFRSYM    DATA     BYTE      PCA0CPM0
      000000E9H   SFRSYM    DATA     BYTE      PCA0CPL1
      000000F0H.4 SFRSYM    DATA     BIT       B_B4
      000000DBH   SFRSYM    DATA     BYTE      PCA0CPM1
      000000EBH   SFRSYM    DATA     BYTE      PCA0CPL2
      000000F0H.5 SFRSYM    DATA     BIT       B_B5
      000000DCH   SFRSYM    DATA     BYTE      PCA0CPM2
      000000B8H   SFRSYM    DATA     BYTE      IP
      000000B9H   SFRSYM    DATA     BYTE      ADC0TK
      000000F0H.6 SFRSYM    DATA     BIT       B_B6
      000000C5H   SFRSYM    DATA     WORD      ADC0LT
      00000098H.5 SFRSYM    DATA     BIT       SCON0_MCE
      000000F0H.7 SFRSYM    DATA     BIT       B_B7
      000000E1H   SFRSYM    DATA     BYTE      XBR0
      000000C1H   SFRSYM    DATA     BYTE      SMB0CF
      000000E2H   SFRSYM    DATA     BYTE      XBR1
      000000C0H.5 SFRSYM    DATA     BIT       SMB0CN0_STA
      000000E3H   SFRSYM    DATA     BYTE      XBR2
      000000BBH   SFRSYM    DATA     BYTE      ADC0MX
      000000E0H.0 SFRSYM    DATA     BIT       ACC_ACC0
      000000D1H   SFRSYM    DATA     BYTE      REF0CN
      0000008EH   SFRSYM    DATA     BYTE      CKCON0
      000000E0H.1 SFRSYM    DATA     BIT       ACC_ACC1
      000000C9H   SFRSYM    DATA     BYTE      REG0CN
      000000DDH   SFRSYM    DATA     BYTE      CRC0IN
      000000C8H.2 SFRSYM    DATA     BIT       TMR2CN0_TR2
      000000E0H.2 SFRSYM    DATA     BIT       ACC_ACC2
      000000E0H.3 SFRSYM    DATA     BIT       ACC_ACC3
      00000081H   SFRSYM    DATA     BYTE      SP
      0000009DH   SFRSYM    DATA     BYTE      CMP0MD
      000000E0H.4 SFRSYM    DATA     BIT       ACC_ACC4
      000000B1H   SFRSYM    DATA     BYTE      LFO0CN
      000000ABH   SFRSYM    DATA     BYTE      CMP1MD
      000000D8H.0 SFRSYM    DATA     BIT       PCA0CN0_CCF0
      000000E0H.5 SFRSYM    DATA     BIT       ACC_ACC5
      000000D8H.1 SFRSYM    DATA     BIT       PCA0CN0_CCF1
      000000E0H.6 SFRSYM    DATA     BIT       ACC_ACC6
      000000CCH   SFRSYM    DATA     WORD      TMR2
      000000D8H.2 SFRSYM    DATA     BIT       PCA0CN0_CCF2
      000000E0H.7 SFRSYM    DATA     BIT       ACC_ACC7
      00000094H   SFRSYM    DATA     WORD      TMR3
      000000C0H.3 SFRSYM    DATA     BIT       SMB0CN0_ACKRQ
      000000FFH   SFRSYM    DATA     BYTE      VDM0CN
      000000F1H   SFRSYM    DATA     BYTE      P0MDIN
      00000098H.4 SFRSYM    DATA     BIT       SCON0_REN
      000000ACH   SFRSYM    DATA     BYTE      SMB0TC
LX51 LINKER/LOCATER V4.66.97.0                                                        08/09/2020  22:39:19  PAGE 28


      000000F2H   SFRSYM    DATA     BYTE      P1MDIN
      000000C0H.4 SFRSYM    DATA     BIT       SMB0CN0_STO
      000000FEH   SFRSYM    DATA     BYTE      P0MASK
      000000EEH   SFRSYM    DATA     BYTE      P1MASK
      000000D0H.3 SFRSYM    DATA     BIT       PSW_RS0
      000000D8H.7 SFRSYM    DATA     BIT       PCA0CN0_CF
      0000009EH   SFRSYM    DATA     BYTE      PCA0CENT
      000000F8H.4 SFRSYM    DATA     BIT       SPI0CN0_RXOVRN
      000000D0H.4 SFRSYM    DATA     BIT       PSW_RS1
      000000E8H.7 SFRSYM    DATA     BIT       ADC0CN0_ADEN
      00000089H   SFRSYM    DATA     BYTE      TMOD
      00000088H   SFRSYM    DATA     BYTE      TCON
      000000CFH   SFRSYM    DATA     BYTE      CRC0FLIP
      000000D0H.0 SFRSYM    DATA     BIT       PSW_PARITY
      000000A8H.4 SFRSYM    DATA     BIT       IE_ES0
      0000009FH   SFRSYM    DATA     BYTE      CMP0MX
      000000A8H.1 SFRSYM    DATA     BIT       IE_ET0
      000000AAH   SFRSYM    DATA     BYTE      CMP1MX
      000000A8H.3 SFRSYM    DATA     BIT       IE_ET1
      000000D4H   SFRSYM    DATA     BYTE      P0SKIP
      000000A8H.5 SFRSYM    DATA     BIT       IE_ET2
      000000D5H   SFRSYM    DATA     BYTE      P1SKIP
      000000E8H   SFRSYM    DATA     BYTE      ADC0CN0
      000000A8H.0 SFRSYM    DATA     BIT       IE_EX0
      000000B2H   SFRSYM    DATA     BYTE      ADC0CN1
      000000D8H.6 SFRSYM    DATA     BIT       PCA0CN0_CR
      000000A8H.2 SFRSYM    DATA     BIT       IE_EX1
      00000098H.7 SFRSYM    DATA     BIT       SCON0_SMODE
      000000B5H   SFRSYM    DATA     BYTE      DEVICEID
      000000A9H   SFRSYM    DATA     BYTE      CLKSEL
      000000F8H.0 SFRSYM    DATA     BIT       SPI0CN0_SPIEN
      000000F0H   SFRSYM    DATA     BYTE      B
      000000BEH   SFRSYM    DATA     BYTE      ADC0H
      000000D2H   SFRSYM    DATA     BYTE      CRC0AUTO
      000000E8H.6 SFRSYM    DATA     BIT       ADC0CN0_ADBMEN
      000000CAH   SFRSYM    DATA     WORD      TMR2RL
      000000BDH   SFRSYM    DATA     BYTE      ADC0L
      00000092H   SFRSYM    DATA     WORD      TMR3RL
      000000D8H   SFRSYM    DATA     BYTE      PCA0CN0
      000000E0H   SFRSYM    DATA     BYTE      ACC
      000000FBH   SFRSYM    DATA     WORD      PCA0CP0
      000000E9H   SFRSYM    DATA     WORD      PCA0CP1
      000000EBH   SFRSYM    DATA     WORD      PCA0CP2
      000000CEH   SFRSYM    DATA     BYTE      CRC0CN0
      0000008CH   SFRSYM    DATA     BYTE      TH0
      000000B8H.4 SFRSYM    DATA     BIT       IP_PS0
      0000008DH   SFRSYM    DATA     BYTE      TH1
      000000FAH   SFRSYM    DATA     BYTE      PCA0H
      000000B8H.1 SFRSYM    DATA     BIT       IP_PT0
      000000B8H.3 SFRSYM    DATA     BIT       IP_PT1
      000000C0H.2 SFRSYM    DATA     BIT       SMB0CN0_ARBLOST
      000000B8H.5 SFRSYM    DATA     BIT       IP_PT2
      0000008AH   SFRSYM    DATA     BYTE      TL0
      000000F8H.1 SFRSYM    DATA     BIT       SPI0CN0_TXBMT
      000000D0H.5 SFRSYM    DATA     BIT       PSW_F0
      000000A8H.6 SFRSYM    DATA     BIT       IE_ESPI0
      0000008BH   SFRSYM    DATA     BYTE      TL1
      000000F9H   SFRSYM    DATA     BYTE      PCA0L
      000000C0H.0 SFRSYM    DATA     BIT       SMB0CN0_SI
      000000D0H.1 SFRSYM    DATA     BIT       PSW_F1
      00000080H.0 SFRSYM    DATA     BIT       P0_B0
      000000B8H.0 SFRSYM    DATA     BIT       IP_PX0
LX51 LINKER/LOCATER V4.66.97.0                                                        08/09/2020  22:39:19  PAGE 29


      00000090H.0 SFRSYM    DATA     BIT       P1_B0
      00000080H.1 SFRSYM    DATA     BIT       P0_B1
      000000B8H.2 SFRSYM    DATA     BIT       IP_PX1
      0000009BH   SFRSYM    DATA     BYTE      CMP0CN0
      00000088H.1 SFRSYM    DATA     BIT       TCON_IE0
      000000A0H.0 SFRSYM    DATA     BIT       P2_B0
      00000090H.1 SFRSYM    DATA     BIT       P1_B1
      00000080H.2 SFRSYM    DATA     BIT       P0_B2
      000000BFH   SFRSYM    DATA     BYTE      CMP1CN0
      00000088H.3 SFRSYM    DATA     BIT       TCON_IE1
      000000A0H.1 SFRSYM    DATA     BIT       P2_B1
      00000090H.2 SFRSYM    DATA     BIT       P1_B2
      00000080H.3 SFRSYM    DATA     BIT       P0_B3
      000000C0H   SFRSYM    DATA     BYTE      SMB0CN0
      00000090H.3 SFRSYM    DATA     BIT       P1_B3
      00000080H.4 SFRSYM    DATA     BIT       P0_B4
      00000090H.4 SFRSYM    DATA     BIT       P1_B4
      00000080H.5 SFRSYM    DATA     BIT       P0_B5
      00000090H.5 SFRSYM    DATA     BIT       P1_B5
      00000080H.6 SFRSYM    DATA     BIT       P0_B6
      00000090H.6 SFRSYM    DATA     BIT       P1_B6
      00000080H.7 SFRSYM    DATA     BIT       P0_B7
      00000090H.7 SFRSYM    DATA     BIT       P1_B7
      00000083H   SFRSYM    DATA     BYTE      DPH
      000000C4H   SFRSYM    DATA     BYTE      ADC0GTH
      000000C8H.7 SFRSYM    DATA     BIT       TMR2CN0_TF2H
      000000C8H.3 SFRSYM    DATA     BIT       TMR2CN0_T2SPLIT
      000000D0H.6 SFRSYM    DATA     BIT       PSW_AC
      000000F8H   SFRSYM    DATA     BYTE      SPI0CN0
      000000C7H   SFRSYM    DATA     BYTE      HFO0CAL
      00000088H.5 SFRSYM    DATA     BIT       TCON_TF0
      00000098H.0 SFRSYM    DATA     BIT       SCON0_RI
      00000082H   SFRSYM    DATA     BYTE      DPL
      00000088H.7 SFRSYM    DATA     BIT       TCON_TF1
      00000099H   SFRSYM    DATA     BYTE      SBUF0
      00000087H   SFRSYM    DATA     BYTE      PCON0
      000000C3H   SFRSYM    DATA     BYTE      ADC0GTL
      000000C8H.6 SFRSYM    DATA     BIT       TMR2CN0_TF2L
      00000098H.1 SFRSYM    DATA     BIT       SCON0_TI
      000000E8H.0 SFRSYM    DATA     BIT       ADC0CN0_ADCM0
      000000C6H   SFRSYM    DATA     BYTE      ADC0LTH
      00000088H.0 SFRSYM    DATA     BIT       TCON_IT0
      000000E8H.1 SFRSYM    DATA     BIT       ADC0CN0_ADCM1
      000000EFH   SFRSYM    DATA     BYTE      RSTSRC
      000000FDH   SFRSYM    DATA     BYTE      P0MAT
      000000DEH   SFRSYM    DATA     BYTE      CRC0DAT
      00000088H.2 SFRSYM    DATA     BIT       TCON_IT1
      000000E8H.2 SFRSYM    DATA     BIT       ADC0CN0_ADCM2
      00000098H   SFRSYM    DATA     BYTE      SCON0
      000000F6H   SFRSYM    DATA     BYTE      PRTDRV
      000000EDH   SFRSYM    DATA     BYTE      P1MAT
      000000E8H.3 SFRSYM    DATA     BIT       ADC0CN0_ADWINT
      000000E8H.4 SFRSYM    DATA     BIT       ADC0CN0_ADBUSY
      000000D6H   SFRSYM    DATA     BYTE      SMB0ADM
      000000C5H   SFRSYM    DATA     BYTE      ADC0LTL
      000000F8H.5 SFRSYM    DATA     BIT       SPI0CN0_MODF
      000000B8H.6 SFRSYM    DATA     BIT       IP_PSPI0
      0000009CH   SFRSYM    DATA     BYTE      PCA0CLR
      000000C8H   SFRSYM    DATA     BYTE      TMR2CN0
      00000091H   SFRSYM    DATA     BYTE      TMR3CN0
      000000D7H   SFRSYM    DATA     BYTE      SMB0ADR
      00000088H.4 SFRSYM    DATA     BIT       TCON_TR0
LX51 LINKER/LOCATER V4.66.97.0                                                        08/09/2020  22:39:19  PAGE 30


      000000C8H.4 SFRSYM    DATA     BIT       TMR2CN0_TF2CEN
      00000088H.6 SFRSYM    DATA     BIT       TCON_TR1
      000000C2H   SFRSYM    DATA     BYTE      SMB0DAT
      000000CDH   SFRSYM    DATA     BYTE      TMR2H
      000000A1H   SFRSYM    DATA     BYTE      SPI0CFG
      00000095H   SFRSYM    DATA     BYTE      TMR3H
      000000D3H   SFRSYM    DATA     BYTE      CRC0CNT
      00000090H.0 SFRSYM    DATA     BIT       PIX
      00000096H   SFRSYM    DATA     BYTE      PCA0POL
      000000CCH   SFRSYM    DATA     BYTE      TMR2L
      000000F8H.7 SFRSYM    DATA     BIT       SPI0CN0_SPIF
      00000094H   SFRSYM    DATA     BYTE      TMR3L
      000000DFH   SFRSYM    DATA     BYTE      ADC0PWR
      000000A8H.7 SFRSYM    DATA     BIT       IE_EA
      000000C8H.5 SFRSYM    DATA     BIT       TMR2CN0_TF2LEN
      000000F8H.6 SFRSYM    DATA     BIT       SPI0CN0_WCOL
      000000F8H.2 SFRSYM    DATA     BIT       SPI0CN0_NSSMD0
      000000D0H.7 SFRSYM    DATA     BIT       PSW_CY
      000000A3H   SFRSYM    DATA     BYTE      SPI0DAT
      000000F8H.3 SFRSYM    DATA     BIT       SPI0CN0_NSSMD1
      000000BDH   SFRSYM    DATA     WORD      ADC0
      000000D0H   SFRSYM    DATA     BYTE      PSW
      000000F7H   SFRSYM    DATA     BYTE      PCA0PWM
      000000B6H   SFRSYM    DATA     BYTE      REVID
      000000B7H   SFRSYM    DATA     BYTE      FLKEY
      000000B3H   SFRSYM    DATA     BYTE      ADC0AC

      01001AFCH   BLOCK     CODE     ---       LVL=0
      00000007H   SYMBOL    DATA     BYTE      i
      01001AFCH   LINE      CODE     ---       #12
      01001AFCH   LINE      CODE     ---       #13
      ---         BLOCKEND  ---      ---       LVL=0

      01001B90H   BLOCK     CODE     ---       LVL=0
      01001B90H   LINE      CODE     ---       #16
      01001B90H   LINE      CODE     ---       #17
      01001B92H   LINE      CODE     ---       #18
      01001B93H   LINE      CODE     ---       #19
      01001B94H   LINE      CODE     ---       #20
      01001B95H   LINE      CODE     ---       #21
      01001B96H   LINE      CODE     ---       #22
      01001B97H   LINE      CODE     ---       #23
      01001B98H   LINE      CODE     ---       #24
      01001B99H   LINE      CODE     ---       #25
      01001B9AH   LINE      CODE     ---       #26
      01001B9CH   LINE      CODE     ---       #27
      01001B9DH   LINE      CODE     ---       #28
      01001B9EH   LINE      CODE     ---       #29
      01001B9FH   LINE      CODE     ---       #30
      01001BA0H   LINE      CODE     ---       #31
      ---         BLOCKEND  ---      ---       LVL=0

      01001B6DH   BLOCK     CODE     ---       LVL=0
      01001B6DH   LINE      CODE     ---       #32
      01001B6DH   LINE      CODE     ---       #33
      01001B6EH   LINE      CODE     ---       #34
      01001B6FH   LINE      CODE     ---       #35
      01001B70H   LINE      CODE     ---       #36
      01001B71H   LINE      CODE     ---       #37
      01001B72H   LINE      CODE     ---       #38
      01001B73H   LINE      CODE     ---       #39
      01001B74H   LINE      CODE     ---       #40
LX51 LINKER/LOCATER V4.66.97.0                                                        08/09/2020  22:39:19  PAGE 31


      01001B75H   LINE      CODE     ---       #41
      01001B76H   LINE      CODE     ---       #42
      01001B77H   LINE      CODE     ---       #43
      01001B78H   LINE      CODE     ---       #44
      01001B79H   LINE      CODE     ---       #45
      01001B7AH   LINE      CODE     ---       #46
      01001B7BH   LINE      CODE     ---       #47
      01001B7CH   LINE      CODE     ---       #48
      01001B7EH   LINE      CODE     ---       #51
      ---         BLOCKEND  ---      ---       LVL=0

      01001BA1H   BLOCK     CODE     ---       LVL=0
      01001BA1H   BLOCK     CODE     NEAR LAB  LVL=1
      00000006H   SYMBOL    DATA     INT       a
      ---         BLOCKEND  ---      ---       LVL=1
      01001BA1H   LINE      CODE     ---       #52
      01001BA1H   LINE      CODE     ---       #53
      01001BA5H   LINE      CODE     ---       #54
      01001BA7H   LINE      CODE     ---       #57
      01001BB1H   LINE      CODE     ---       #59
      ---         BLOCKEND  ---      ---       LVL=0

      0100190EH   BLOCK     CODE     ---       LVL=0
      ---         BLOCKEND  ---      ---       LVL=0

      0100191AH   BLOCK     CODE     ---       LVL=0
      00000007H   SYMBOL    DATA     BYTE      dat
      0100191AH   LINE      CODE     ---       #60
      0100191AH   LINE      CODE     ---       #61
      0100191EH   LINE      CODE     ---       #62
      01001920H   LINE      CODE     ---       #63
      01001923H   LINE      CODE     ---       #64
      01001925H   LINE      CODE     ---       #65
      01001928H   LINE      CODE     ---       #66
      0100192CH   LINE      CODE     ---       #67
      0100192EH   LINE      CODE     ---       #68
      01001931H   LINE      CODE     ---       #69
      01001933H   LINE      CODE     ---       #70
      01001936H   LINE      CODE     ---       #71
      0100193AH   LINE      CODE     ---       #72
      0100193CH   LINE      CODE     ---       #73
      0100193FH   LINE      CODE     ---       #74
      01001941H   LINE      CODE     ---       #75
      01001944H   LINE      CODE     ---       #76
      01001948H   LINE      CODE     ---       #77
      0100194AH   LINE      CODE     ---       #78
      0100194DH   LINE      CODE     ---       #79
      0100194FH   LINE      CODE     ---       #80
      01001952H   LINE      CODE     ---       #81
      01001956H   LINE      CODE     ---       #82
      01001958H   LINE      CODE     ---       #83
      0100195BH   LINE      CODE     ---       #84
      0100195DH   LINE      CODE     ---       #85
      01001960H   LINE      CODE     ---       #86
      01001964H   LINE      CODE     ---       #87
      01001966H   LINE      CODE     ---       #88
      01001969H   LINE      CODE     ---       #89
      0100196BH   LINE      CODE     ---       #90
      0100196EH   LINE      CODE     ---       #91
      01001972H   LINE      CODE     ---       #92
      01001974H   LINE      CODE     ---       #93
      01001977H   LINE      CODE     ---       #94
LX51 LINKER/LOCATER V4.66.97.0                                                        08/09/2020  22:39:19  PAGE 32


      01001979H   LINE      CODE     ---       #95
      0100197CH   LINE      CODE     ---       #96
      01001980H   LINE      CODE     ---       #97
      01001982H   LINE      CODE     ---       #98
      01001985H   LINE      CODE     ---       #99
      01001985H   LINE      CODE     ---       #100
      01001988H   LINE      CODE     ---       #101
      ---         BLOCKEND  ---      ---       LVL=0

      01001A80H   BLOCK     CODE     ---       LVL=0
      0000002EH   SYMBOL    DATA     BYTE      g
      00000006H   SYMBOL    DATA     BYTE      r
      0000002FH   SYMBOL    DATA     BYTE      b
      01001A86H   BLOCK     CODE     NEAR LAB  LVL=1
      00000002H   SYMBOL    DATA     INT       i
      00000030H   SYMBOL    DATA     BYTE      nr
      00000031H   SYMBOL    DATA     BYTE      ng
      00000005H   SYMBOL    DATA     BYTE      nb
      ---         BLOCKEND  ---      ---       LVL=1
      01001A80H   LINE      CODE     ---       #103
      01001A86H   LINE      CODE     ---       #105
      01001A8DH   LINE      CODE     ---       #106
      01001A94H   LINE      CODE     ---       #107
      01001A9BH   LINE      CODE     ---       #110
      01001A9EH   LINE      CODE     ---       #111
      01001A9EH   LINE      CODE     ---       #112
      01001A9EH   LINE      CODE     ---       #113
      01001AA1H   LINE      CODE     ---       #114
      01001AACH   LINE      CODE     ---       #115
      01001AAFH   LINE      CODE     ---       #116
      01001AB2H   LINE      CODE     ---       #117
      01001AB2H   LINE      CODE     ---       #118
      01001AB2H   LINE      CODE     ---       #119
      01001AB5H   LINE      CODE     ---       #120
      01001AC0H   LINE      CODE     ---       #121
      ---         BLOCKEND  ---      ---       LVL=0

      ---         MODULE    ---      ---       ?C?FPADD
      0100002DH   PUBLIC    CODE     ---       ?C?FPADD
      01000029H   PUBLIC    CODE     ---       ?C?FPSUB

      ---         MODULE    ---      ---       ?C?FPMUL
      0100011EH   PUBLIC    CODE     ---       ?C?FPMUL

      ---         MODULE    ---      ---       ?C?FPDIV
      01000227H   PUBLIC    CODE     ---       ?C?FPDIV

      ---         MODULE    ---      ---       ?C?FCAST
      010002CEH   PUBLIC    CODE     ---       ?C?FCASTC
      010002C9H   PUBLIC    CODE     ---       ?C?FCASTI
      010002C4H   PUBLIC    CODE     ---       ?C?FCASTL

      ---         MODULE    ---      ---       ?C?CASTF
      01000302H   PUBLIC    CODE     ---       ?C?CASTF

      ---         MODULE    ---      ---       PRINTF
      0000002EH   PUBLIC    DATA     ---       ?_PRINTF?BYTE
      0000002EH   PUBLIC    DATA     ---       ?_SPRINTF?BYTE
      01000A63H   PUBLIC    CODE     ---       _PRINTF
      01000A5DH   PUBLIC    CODE     ---       _SPRINTF

      ---         MODULE    ---      ---       POW
LX51 LINKER/LOCATER V4.66.97.0                                                        08/09/2020  22:39:19  PAGE 33


      00000032H   PUBLIC    DATA     ---       ?_POW?BYTE
      010014D9H   PUBLIC    CODE     ---       _POW

      ---         MODULE    ---      ---       ?C?FPGETOPN
      01000339H   PUBLIC    CODE     ---       ?C?FPGETOPN2
      0100036EH   PUBLIC    CODE     ---       ?C?FPNANRESULT
      01000378H   PUBLIC    CODE     ---       ?C?FPOVERFLOW
      01000350H   PUBLIC    CODE     ---       ?C?FPRESULT
      01000364H   PUBLIC    CODE     ---       ?C?FPRESULT2
      01000375H   PUBLIC    CODE     ---       ?C?FPUNDERFLOW

      ---         MODULE    ---      ---       ?C?CHKFLOAT
      01000383H   PUBLIC    CODE     ---       ?C?CHKFLOAT

      ---         MODULE    ---      ---       ?C?FPCMP
      0100039FH   PUBLIC    CODE     ---       ?C?FPCMP
      0100039DH   PUBLIC    CODE     ---       ?C?FPCMP3

      ---         MODULE    ---      ---       ?C?FPNEG
      01000416H   PUBLIC    CODE     ---       ?C?FPNEG

      ---         MODULE    ---      ---       ?C?FPROUND
      01000427H   PUBLIC    CODE     ---       ?C?FPROUND

      ---         MODULE    ---      ---       ?C?FPCONVERT
      01000456H   PUBLIC    CODE     ---       ?C?FPCONVERT

      ---         MODULE    ---      ---       EXP
      010016F0H   PUBLIC    CODE     ---       _EXP

      ---         MODULE    ---      ---       LOG
      010013D8H   PUBLIC    CODE     ---       _LOG
      010013D4H   PUBLIC    CODE     ---       _LOG10

      ---         MODULE    ---      ---       ?C?FTNPWR
      01000589H   PUBLIC    CODE     ---       ?C?FTNPWR

      ---         MODULE    ---      ---       ?C?FPSERIES
      010005C9H   PUBLIC    CODE     ---       ?C?FP2SERIES
      010005D8H   PUBLIC    CODE     ---       ?C?FPSERIES

      ---         MODULE    ---      ---       ?C_INIT
      010018C9H   PUBLIC    CODE     ---       ?C_START

      ---         MODULE    ---      ---       ?C?COPY
      010006E6H   PUBLIC    CODE     ---       ?C?COPY

      ---         MODULE    ---      ---       ?C?CLDPTR
      0100070CH   PUBLIC    CODE     ---       ?C?CLDPTR

      ---         MODULE    ---      ---       ?C?CLDOPTR
      01000725H   PUBLIC    CODE     ---       ?C?CLDOPTR

      ---         MODULE    ---      ---       ?C?CSTPTR
      01000752H   PUBLIC    CODE     ---       ?C?CSTPTR

      ---         MODULE    ---      ---       ?C?IILDX
      01000764H   PUBLIC    CODE     ---       ?C?IILDX

      ---         MODULE    ---      ---       ?C?ULDIV
      010007B6H   PUBLIC    CODE     ---       ?C?ULDIV

LX51 LINKER/LOCATER V4.66.97.0                                                        08/09/2020  22:39:19  PAGE 34


      ---         MODULE    ---      ---       ?C?SLDIV
      01001A3CH   PUBLIC    CODE     ---       ?C?SLDIV

      ---         MODULE    ---      ---       ?C?LNEG
      01000848H   PUBLIC    CODE     ---       ?C?LNEG

      ---         MODULE    ---      ---       ?C?ULCMP
      01000856H   PUBLIC    CODE     ---       ?C?ULCMP

      ---         MODULE    ---      ---       ?C?LLDPTR
      01000867H   PUBLIC    CODE     ---       ?C?LLDPTR

      ---         MODULE    ---      ---       ?C?LLDCODE
      01000887H   PUBLIC    CODE     ---       ?C?LLDCODE

      ---         MODULE    ---      ---       ?C?LLDCODE0
      01000897H   PUBLIC    CODE     ---       ?C?LLDCODE0

      ---         MODULE    ---      ---       ?C?PLDIIDATA
      010008A7H   PUBLIC    CODE     ---       ?C?PLDIIDATA

      ---         MODULE    ---      ---       ?C?PLDPTR
      010008B7H   PUBLIC    CODE     ---       ?C?PLDPTR

      ---         MODULE    ---      ---       ?C?CCASE
      010008D7H   PUBLIC    CODE     ---       ?C?CCASE

      ---         MODULE    ---      ---       PUTCHAR
      01001B30H   PUBLIC    CODE     ---       _PUTCHAR

      ---         MODULE    ---      ---       STRTOL
      0000002EH   PUBLIC    DATA     ---       ?_STRTOL?BYTE
      0100120CH   PUBLIC    CODE     ---       _STRTOL

      ---         MODULE    ---      ---       ?C?LMUL
      010008FDH   PUBLIC    CODE     ---       ?C?LMUL

      ---         MODULE    ---      ---       ?C?LLDIDATA
      0100094CH   PUBLIC    CODE     ---       ?C?LLDIDATA

      ---         MODULE    ---      ---       ?C?LLDXDATA
      01000958H   PUBLIC    CODE     ---       ?C?LLDXDATA

      ---         MODULE    ---      ---       ?C?LLDPDATA
      01000964H   PUBLIC    CODE     ---       ?C?LLDPDATA

      ---         MODULE    ---      ---       ?C?PLDIDATA
      01000970H   PUBLIC    CODE     ---       ?C?PLDIDATA

      ---         MODULE    ---      ---       ?C?PLDXDATA
      01000979H   PUBLIC    CODE     ---       ?C?PLDXDATA

      ---         MODULE    ---      ---       ?C?PLDPDATA
      01000982H   PUBLIC    CODE     ---       ?C?PLDPDATA

      ---         MODULE    ---      ---       ?C?PLDCODE
      0100098BH   PUBLIC    CODE     ---       ?C?PLDCODE

      ---         MODULE    ---      ---       ?C?PSTPTR
      01000997H   PUBLIC    CODE     ---       ?C?PSTPTR

      ---         MODULE    ---      ---       ?C?PSTIDATA
LX51 LINKER/LOCATER V4.66.97.0                                                        08/09/2020  22:39:19  PAGE 35


      010009E6H   PUBLIC    CODE     ---       ?C?PSTIDATA

      ---         MODULE    ---      ---       ?C?PSTXDATA
      010009EFH   PUBLIC    CODE     ---       ?C?PSTXDATA

      ---         MODULE    ---      ---       ?C?PSTPDATA
      010009F8H   PUBLIC    CODE     ---       ?C?PSTPDATA

Program Size: data=55.5 xdata=195 const=14 code=7123
LX51 RUN COMPLETE.  0 WARNING(S),  0 ERROR(S)
